Certificate:
    Data:
        Version: 3 (0x2)
        Serial Number:
            d8:d3:e3:a6:cb:e3:cd:90
        Signature Algorithm: sha256WithRSAEncryption
        Issuer: C=FI, L=Tuusula, O=w1.fi, CN=Root CA
        Validity
            Not Before: Apr 16 15:32:42 2024 GMT
            Not After : Apr 16 15:32:42 2025 GMT
        Subject: C=FI, O=w1.fi, CN=ocsp.w1.fi
        Subject Public Key Info:
            Public Key Algorithm: rsaEncryption
                Public-Key: (2048 bit)
                Modulus:
                    00:a7:22:85:5d:bb:3b:1c:02:9a:01:73:aa:88:63:
                    6e:a1:43:33:b5:fd:02:fe:1f:c8:23:04:8b:8c:51:
                    52:5b:e0:cc:62:60:2a:aa:ba:88:4f:41:39:6b:fb:
                    34:c0:a2:7a:77:2e:e1:56:9e:ef:ca:ae:67:d5:f9:
                    8b:5f:ab:ae:87:e1:b0:14:23:03:ad:69:4b:df:2b:
                    91:70:75:cd:bf:65:40:12:d0:eb:2f:89:f0:41:15:
                    1b:ed:4c:0d:3a:92:96:91:f8:cd:54:38:15:eb:6b:
                    45:9f:52:85:7e:4e:15:ab:4e:4b:eb:22:c2:5d:be:
                    ff:36:6f:42:27:d8:4b:c6:e1:be:f8:08:cf:ac:fd:
                    51:30:a2:e8:80:13:00:05:b6:05:55:42:0b:fa:1e:
                    40:84:50:09:8c:25:35:54:25:45:39:9f:4e:7c:0a:
                    d9:c4:4a:0c:16:4e:3e:68:7f:1b:ad:c9:53:08:5c:
                    b8:04:d4:d6:93:62:fd:af:f9:b4:1d:f4:96:3e:9b:
                    9d:14:6d:1c:6c:23:ae:3d:c7:b4:cf:31:90:20:6a:
                    80:99:62:7e:5c:e9:d5:d5:bd:59:4d:a3:d9:dc:e9:
                    fb:e8:7b:65:87:d5:f9:49:9e:be:0e:f3:a9:21:de:
                    94:e8:54:fc:80:cf:da:e3:8f:9a:c6:4c:76:18:0e:
                    fe:ab
                Exponent: 65537 (0x10001)
        X509v3 extensions:
            X509v3 Basic Constraints: 
                CA:FALSE
            X509v3 Key Usage: 
                Digital Signature, Non Repudiation, Key Encipherment
            X509v3 Extended Key Usage: 
                OCSP Signing
            X509v3 Subject Key Identifier: 
                2D:D5:2E:6F:1C:49:B1:7C:C9:A1:0C:66:32:35:AB:A8:96:F8:21:A2
            X509v3 Authority Key Identifier: 
                A4:FD:B9:39:1B:81:B3:AA:EB:88:1D:D4:81:A9:B5:11:70:CC:A7:E1
    Signature Algorithm: sha256WithRSAEncryption
    Signature Value:
        1e:a8:ee:ae:ea:d7:a4:34:9f:03:c1:9e:40:2a:b8:a7:c7:7c:
        a7:b7:b3:65:b5:f7:90:a8:ac:bf:19:a4:0e:6b:03:47:c3:a4:
        07:e0:8a:62:64:15:a6:13:d7:92:94:88:1a:c7:90:e2:b3:35:
        79:8a:06:de:e2:c0:1f:66:fe:f9:49:9c:97:61:29:67:16:dd:
        49:4f:98:40:c2:c9:11:96:4b:64:54:7a:c0:b8:ed:b3:cb:5f:
        aa:19:21:f8:6c:fd:c5:e5:96:0d:bc:82:88:e2:11:c8:05:20:
        eb:cd:80:2d:47:9d:19:f2:1b:e4:b0:ea:99:58:c2:98:f5:14:
        bd:d9:cf:3e:89:2e:31:91:bd:11:be:50:78:ee:47:fc:e8:43:
        3f:6f:48:54:be:97:a5:f2:45:2f:2e:b3:40:c7:f8:ab:af:2c:
        aa:d7:d5:b1:ae:a3:ec:42:36:ed:05:c9:67:1f:f1:f9:01:4a:
        f1:9b:40:75:d0:87:fe:2e:7c:0f:59:84:99:91:cd:bb:aa:02:
        d8:ed:ee:d6:81:d9:fc:b4:4b:57:7e:21:48:d6:72:b1:ba:69:
        08:74:14:d4:31:57:bb:64:e2:83:d9:08:1d:56:65:8a:90:85:
        f6:11:13:39:ab:42:7a:fa:0c:01:3f:29:63:db:1d:6a:97:31:
        a5:7d:d2:da
-----BEGIN CERTIFICATE-----
MIIDZTCCAk2gAwIBAgIJANjT46bL482QMA0GCSqGSIb3DQEBCwUAMEExCzAJBgNV
BAYTAkZJMRAwDgYDVQQHDAdUdXVzdWxhMQ4wDAYDVQQKDAV3MS5maTEQMA4GA1UE
AwwHUm9vdCBDQTAeFw0yNDA0MTYxNTMyNDJaFw0yNTA0MTYxNTMyNDJaMDIxCzAJ
BgNVBAYTAkZJMQ4wDAYDVQQKDAV3MS5maTETMBEGA1UEAwwKb2NzcC53MS5maTCC
ASIwDQYJKoZIhvcNAQEBBQADggEPADCCAQoCggEBAKcihV27OxwCmgFzqohjbqFD
M7X9Av4fyCMEi4xRUlvgzGJgKqq6iE9BOWv7NMCiencu4Vae78quZ9X5i1+rrofh
sBQjA61pS98rkXB1zb9lQBLQ6y+J8EEVG+1MDTqSlpH4zVQ4FetrRZ9ShX5OFatO
S+siwl2+/zZvQifYS8bhvvgIz6z9UTCi6IATAAW2BVVCC/oeQIRQCYwlNVQlRTmf
TnwK2cRKDBZOPmh/G63JUwhcuATU1pNi/a/5tB30lj6bnRRtHGwjrj3HtM8xkCBq
gJliflzp1dW9WU2j2dzp++h7ZYfV+Umevg7zqSHelOhU/IDP2uOPmsZMdhgO/qsC
AwEAAaNvMG0wCQYDVR0TBAIwADALBgNVHQ8EBAMCBeAwEwYDVR0lBAwwCgYIKwYB
BQUHAwkwHQYDVR0OBBYEFC3VLm8cSbF8yaEMZjI1q6iW+CGiMB8GA1UdIwQYMBaA
FKT9uTkbgbOq64gd1IGptRFwzKfhMA0GCSqGSIb3DQEBCwUAA4IBAQAeqO6u6tek
NJ8DwZ5AKrinx3ynt7NltfeQqKy/GaQOawNHw6QH4IpiZBWmE9eSlIgax5DiszV5
igbe4sAfZv75SZyXYSlnFt1JT5hAwskRlktkVHrAuO2zy1+qGSH4bP3F5ZYNvIKI
4hHIBSDrzYAtR50Z8hvksOqZWMKY9RS92c8+iS4xkb0RvlB47kf86EM/b0hUvpel
8kUvLrNAx/irryyq19WxrqPsQjbtBclnH/H5AUrxm0B10If+LnwPWYSZkc27qgLY
7e7Wgdn8tEtXfiFI1nKxumkIdBTUMVe7ZOKD2QgdVmWKkIX2ERM5q0J6+gwBPylj
2x1qlzGlfdLa
-----END CERTIFICATE-----
