Certificate:
    Data:
        Version: 3 (0x2)
        Serial Number:
            d8:d3:e3:a6:cb:e3:cd:86
        Signature Algorithm: sha256WithRSAEncryption
        Issuer: C=FI, L=Tuusula, O=w1.fi, CN=Root CA
        Validity
            Not Before: Apr 17 15:09:51 2023 GMT
            Not After : Apr 16 15:09:51 2024 GMT
        Subject: C=FI, O=w1.fi, CN=ocsp.w1.fi
        Subject Public Key Info:
            Public Key Algorithm: rsaEncryption
                RSA Public-Key: (2048 bit)
                Modulus:
                    00:a7:22:85:5d:bb:3b:1c:02:9a:01:73:aa:88:63:
                    6e:a1:43:33:b5:fd:02:fe:1f:c8:23:04:8b:8c:51:
                    52:5b:e0:cc:62:60:2a:aa:ba:88:4f:41:39:6b:fb:
                    34:c0:a2:7a:77:2e:e1:56:9e:ef:ca:ae:67:d5:f9:
                    8b:5f:ab:ae:87:e1:b0:14:23:03:ad:69:4b:df:2b:
                    91:70:75:cd:bf:65:40:12:d0:eb:2f:89:f0:41:15:
                    1b:ed:4c:0d:3a:92:96:91:f8:cd:54:38:15:eb:6b:
                    45:9f:52:85:7e:4e:15:ab:4e:4b:eb:22:c2:5d:be:
                    ff:36:6f:42:27:d8:4b:c6:e1:be:f8:08:cf:ac:fd:
                    51:30:a2:e8:80:13:00:05:b6:05:55:42:0b:fa:1e:
                    40:84:50:09:8c:25:35:54:25:45:39:9f:4e:7c:0a:
                    d9:c4:4a:0c:16:4e:3e:68:7f:1b:ad:c9:53:08:5c:
                    b8:04:d4:d6:93:62:fd:af:f9:b4:1d:f4:96:3e:9b:
                    9d:14:6d:1c:6c:23:ae:3d:c7:b4:cf:31:90:20:6a:
                    80:99:62:7e:5c:e9:d5:d5:bd:59:4d:a3:d9:dc:e9:
                    fb:e8:7b:65:87:d5:f9:49:9e:be:0e:f3:a9:21:de:
                    94:e8:54:fc:80:cf:da:e3:8f:9a:c6:4c:76:18:0e:
                    fe:ab
                Exponent: 65537 (0x10001)
        X509v3 extensions:
            X509v3 Basic Constraints: 
                CA:FALSE
            X509v3 Key Usage: 
                Digital Signature, Non Repudiation, Key Encipherment
            X509v3 Extended Key Usage: 
                OCSP Signing
    Signature Algorithm: sha256WithRSAEncryption
         6b:9b:93:86:57:fc:9f:32:13:39:f3:f6:a6:27:42:30:54:39:
         ef:e5:aa:3b:35:0d:c7:32:ab:af:bc:10:9b:27:4d:21:f8:fd:
         83:d5:e4:08:fe:bb:16:91:97:74:ac:8c:f7:e3:bc:cd:81:60:
         05:3a:fa:60:06:d0:e6:08:50:bb:6d:74:0b:d5:38:ca:a5:c2:
         d6:f3:8d:97:92:31:7e:00:95:98:b5:46:03:fb:b3:3c:bb:34:
         f9:4c:f3:09:ad:07:e4:ff:46:c3:ae:88:9f:96:78:64:a3:57:
         48:c3:c2:39:d9:d5:35:97:78:d7:b7:fb:90:5c:13:02:6a:fd:
         2f:a1:e3:75:d6:ce:7e:1b:a2:28:f3:c2:f7:9c:00:1c:c9:3e:
         e1:8b:25:5e:d9:fb:dc:92:d6:54:f3:2a:50:50:db:a3:ce:8b:
         79:22:23:64:55:15:d9:d0:46:42:a4:0a:9b:af:06:12:c6:1a:
         91:82:37:d6:2b:74:da:83:c2:9c:de:51:f7:bf:d6:27:83:54:
         f3:a4:e3:46:14:d7:9a:f6:9d:16:e5:67:a2:a6:7e:cb:7b:12:
         6a:21:72:37:0c:16:dc:0c:22:5b:23:5a:c8:de:bb:a4:0a:0b:
         44:f4:a4:91:b8:cc:04:71:4c:ff:7c:e0:ab:60:ba:72:78:ff:
         70:ec:74:4c
-----BEGIN CERTIFICATE-----
MIIDJTCCAg2gAwIBAgIJANjT46bL482GMA0GCSqGSIb3DQEBCwUAMEExCzAJBgNV
BAYTAkZJMRAwDgYDVQQHDAdUdXVzdWxhMQ4wDAYDVQQKDAV3MS5maTEQMA4GA1UE
AwwHUm9vdCBDQTAeFw0yMzA0MTcxNTA5NTFaFw0yNDA0MTYxNTA5NTFaMDIxCzAJ
BgNVBAYTAkZJMQ4wDAYDVQQKDAV3MS5maTETMBEGA1UEAwwKb2NzcC53MS5maTCC
ASIwDQYJKoZIhvcNAQEBBQADggEPADCCAQoCggEBAKcihV27OxwCmgFzqohjbqFD
M7X9Av4fyCMEi4xRUlvgzGJgKqq6iE9BOWv7NMCiencu4Vae78quZ9X5i1+rrofh
sBQjA61pS98rkXB1zb9lQBLQ6y+J8EEVG+1MDTqSlpH4zVQ4FetrRZ9ShX5OFatO
S+siwl2+/zZvQifYS8bhvvgIz6z9UTCi6IATAAW2BVVCC/oeQIRQCYwlNVQlRTmf
TnwK2cRKDBZOPmh/G63JUwhcuATU1pNi/a/5tB30lj6bnRRtHGwjrj3HtM8xkCBq
gJliflzp1dW9WU2j2dzp++h7ZYfV+Umevg7zqSHelOhU/IDP2uOPmsZMdhgO/qsC
AwEAAaMvMC0wCQYDVR0TBAIwADALBgNVHQ8EBAMCBeAwEwYDVR0lBAwwCgYIKwYB
BQUHAwkwDQYJKoZIhvcNAQELBQADggEBAGubk4ZX/J8yEznz9qYnQjBUOe/lqjs1
Dccyq6+8EJsnTSH4/YPV5Aj+uxaRl3SsjPfjvM2BYAU6+mAG0OYIULttdAvVOMql
wtbzjZeSMX4AlZi1RgP7szy7NPlM8wmtB+T/RsOuiJ+WeGSjV0jDwjnZ1TWXeNe3
+5BcEwJq/S+h43XWzn4boijzwvecABzJPuGLJV7Z+9yS1lTzKlBQ26POi3kiI2RV
FdnQRkKkCpuvBhLGGpGCN9YrdNqDwpzeUfe/1ieDVPOk40YU15r2nRblZ6Kmfst7
EmohcjcMFtwMIlsjWsjeu6QKC0T0pJG4zARxTP984KtgunJ4/3DsdEw=
-----END CERTIFICATE-----
