Certificate:
    Data:
        Version: 3 (0x2)
        Serial Number:
            d8:d3:e3:a6:cb:e3:cd:8d
        Signature Algorithm: sha256WithRSAEncryption
        Issuer: C=FI, L=Tuusula, O=w1.fi, CN=Root CA
        Validity
            Not Before: Apr 16 15:32:42 2024 GMT
            Not After : Apr 16 15:32:42 2025 GMT
        Subject: C=FI, O=w1.fi, CN=server-policies.w1.fi
        Subject Public Key Info:
            Public Key Algorithm: rsaEncryption
                Public-Key: (3072 bit)
                Modulus:
                    00:d2:a6:ef:9b:bd:60:63:a1:75:ad:4b:d3:6f:59:
                    5e:84:fa:64:a0:64:24:0b:78:48:fc:8d:66:8b:2f:
                    6e:1d:44:2b:ae:c3:6d:94:ba:cb:a3:34:be:0b:4e:
                    47:8d:5b:d9:99:a6:a8:07:09:87:55:b2:37:7e:47:
                    67:5c:74:5f:2c:83:79:b2:08:47:b4:ec:4f:ef:75:
                    58:67:c6:58:4c:4f:68:c1:18:1a:84:4d:78:23:48:
                    9a:14:38:6e:5b:4a:12:eb:86:c4:f7:4c:38:ac:63:
                    a7:61:fa:b3:64:7c:89:0e:29:f7:9f:f8:75:c3:ef:
                    90:c2:71:96:a1:ab:69:d3:c2:74:13:cf:e8:f7:09:
                    98:ed:3a:79:d6:c4:46:49:93:78:3b:16:a5:a9:dd:
                    f0:eb:bd:44:a7:dc:4e:ce:f7:a7:c9:3f:78:08:8b:
                    05:c6:17:2e:ee:df:11:a0:f7:f5:58:80:76:c2:34:
                    ef:b9:78:be:c4:5c:be:5f:5e:d7:b7:cd:a3:12:c4:
                    e3:76:fc:64:85:64:65:6b:da:5c:c9:38:50:39:89:
                    72:e5:20:ef:b9:0b:cc:32:26:3c:79:5e:4a:8d:78:
                    8d:6a:dd:73:3a:c8:42:27:43:0d:dd:05:1f:bc:84:
                    df:56:2d:7e:98:50:9e:8b:78:b0:e7:fd:a8:39:07:
                    57:05:12:fc:00:ef:89:f0:3f:03:f6:93:5b:b0:44:
                    57:61:61:47:05:6c:c4:16:98:61:b8:93:32:45:39:
                    fb:bb:8e:3b:87:18:5f:3a:07:57:d1:98:89:1d:85:
                    b7:5e:ea:1b:51:79:94:5c:d8:fa:bd:ba:75:00:03:
                    e3:f4:03:cd:5c:db:16:a1:ac:b7:f4:93:7e:ec:9a:
                    b0:e6:9c:4e:5d:3c:ba:01:32:cc:70:ca:49:3c:92:
                    fe:d2:88:81:9d:db:f4:bb:80:fe:ef:89:50:ea:80:
                    95:bd:c4:fa:28:d8:c0:86:61:37:d7:99:2b:8e:b9:
                    06:78:9a:08:44:17:da:19:35:97
                Exponent: 65537 (0x10001)
        X509v3 extensions:
            X509v3 Basic Constraints: 
                CA:FALSE
            X509v3 Subject Key Identifier: 
                3E:AD:0D:4D:7E:FA:A2:4A:D5:F5:31:EA:B6:B4:BF:83:B1:55:7E:C7
            X509v3 Authority Key Identifier: 
                A4:FD:B9:39:1B:81:B3:AA:EB:88:1D:D4:81:A9:B5:11:70:CC:A7:E1
            Authority Information Access: 
                OCSP - URI:http://server.w1.fi:8888/
            X509v3 Subject Alternative Name: 
                DNS:server-policies.w1.fi
            X509v3 Certificate Policies: 
                Policy: 1.3.6.1.4.1.40808.1.3.1
            X509v3 Extended Key Usage: 
                TLS Web Server Authentication
    Signature Algorithm: sha256WithRSAEncryption
    Signature Value:
        47:fc:9e:4c:be:68:3a:ac:ca:a6:6a:8b:54:9c:bf:88:ee:af:
        43:ba:06:f6:cc:f9:bc:5e:0b:52:3d:8a:da:34:95:eb:8a:74:
        74:78:58:77:ad:89:aa:18:38:f6:72:65:30:c1:16:c8:68:bd:
        7c:86:64:94:bc:8f:87:bd:e1:c6:f9:fd:3d:f5:3d:db:22:a3:
        41:c4:6a:37:99:e4:6a:1b:96:ce:d1:c3:66:d5:3f:03:79:bf:
        45:09:ab:76:8b:b7:bc:85:97:60:70:98:5a:d5:88:df:30:78:
        69:54:47:37:77:39:76:18:05:8d:de:ee:41:3a:ab:b4:9a:21:
        be:33:9f:8e:fb:9e:5d:fd:5d:89:bb:23:7f:c6:c8:fc:9c:a0:
        f3:7a:9c:ec:f7:f1:16:a0:a4:68:d6:ef:88:36:4f:18:ad:ac:
        4e:ce:73:58:82:67:31:61:20:16:21:0c:76:45:f6:fd:bf:31:
        c2:57:e9:95:a6:48:54:aa:db:04:55:40:ce:e3:79:d9:ac:43:
        d0:ff:64:fc:b3:34:89:a1:d4:f5:ff:79:15:4c:4b:c8:ba:88:
        33:b5:e9:fd:2d:8d:4d:d6:6c:96:66:6f:67:4b:36:9b:34:a8:
        f4:5e:c1:d8:7d:95:9b:a2:90:78:57:12:69:e0:52:cb:59:71:
        7e:0c:1f:06
-----BEGIN CERTIFICATE-----
MIIEWDCCA0CgAwIBAgIJANjT46bL482NMA0GCSqGSIb3DQEBCwUAMEExCzAJBgNV
BAYTAkZJMRAwDgYDVQQHDAdUdXVzdWxhMQ4wDAYDVQQKDAV3MS5maTEQMA4GA1UE
AwwHUm9vdCBDQTAeFw0yNDA0MTYxNTMyNDJaFw0yNTA0MTYxNTMyNDJaMD0xCzAJ
BgNVBAYTAkZJMQ4wDAYDVQQKDAV3MS5maTEeMBwGA1UEAwwVc2VydmVyLXBvbGlj
aWVzLncxLmZpMIIBojANBgkqhkiG9w0BAQEFAAOCAY8AMIIBigKCAYEA0qbvm71g
Y6F1rUvTb1lehPpkoGQkC3hI/I1miy9uHUQrrsNtlLrLozS+C05HjVvZmaaoBwmH
VbI3fkdnXHRfLIN5sghHtOxP73VYZ8ZYTE9owRgahE14I0iaFDhuW0oS64bE90w4
rGOnYfqzZHyJDin3n/h1w++QwnGWoatp08J0E8/o9wmY7Tp51sRGSZN4Oxalqd3w
671Ep9xOzvenyT94CIsFxhcu7t8RoPf1WIB2wjTvuXi+xFy+X17Xt82jEsTjdvxk
hWRla9pcyThQOYly5SDvuQvMMiY8eV5KjXiNat1zOshCJ0MN3QUfvITfVi1+mFCe
i3iw5/2oOQdXBRL8AO+J8D8D9pNbsERXYWFHBWzEFphhuJMyRTn7u447hxhfOgdX
0ZiJHYW3XuobUXmUXNj6vbp1AAPj9APNXNsWoay39JN+7Jqw5pxOXTy6ATLMcMpJ
PJL+0oiBndv0u4D+74lQ6oCVvcT6KNjAhmE315krjrkGeJoIRBfaGTWXAgMBAAGj
gdYwgdMwCQYDVR0TBAIwADAdBgNVHQ4EFgQUPq0NTX76okrV9THqtrS/g7FVfscw
HwYDVR0jBBgwFoAUpP25ORuBs6rriB3Ugam1EXDMp+EwNQYIKwYBBQUHAQEEKTAn
MCUGCCsGAQUFBzABhhlodHRwOi8vc2VydmVyLncxLmZpOjg4ODgvMCAGA1UdEQQZ
MBeCFXNlcnZlci1wb2xpY2llcy53MS5maTAYBgNVHSAEETAPMA0GCysGAQQBgr5o
AQMBMBMGA1UdJQQMMAoGCCsGAQUFBwMBMA0GCSqGSIb3DQEBCwUAA4IBAQBH/J5M
vmg6rMqmaotUnL+I7q9Dugb2zPm8XgtSPYraNJXrinR0eFh3rYmqGDj2cmUwwRbI
aL18hmSUvI+HveHG+f099T3bIqNBxGo3meRqG5bO0cNm1T8Deb9FCat2i7e8hZdg
cJha1YjfMHhpVEc3dzl2GAWN3u5BOqu0miG+M5+O+55d/V2JuyN/xsj8nKDzepzs
9/EWoKRo1u+INk8YraxOznNYgmcxYSAWIQx2Rfb9vzHCV+mVpkhUqtsEVUDO43nZ
rEPQ/2T8szSJodT1/3kVTEvIuogzten9LY1N1myWZm9nSzabNKj0XsHYfZWbopB4
VxJp4FLLWXF+DB8G
-----END CERTIFICATE-----
