Certificate:
    Data:
        Version: 3 (0x2)
        Serial Number:
            d8:d3:e3:a6:cb:e3:cd:8a
        Signature Algorithm: sha256WithRSAEncryption
        Issuer: C=FI, L=Tuusula, O=w1.fi, CN=Root CA
        Validity
            Not Before: Apr 16 15:32:42 2024 GMT
            Not After : Apr 16 15:32:42 2025 GMT
        Subject: C=FI, O=w1.fi, CN=server5.w1.fi
        Subject Public Key Info:
            Public Key Algorithm: rsaEncryption
                Public-Key: (2048 bit)
                Modulus:
                    00:a5:94:60:80:b8:c8:61:18:8c:02:9d:dc:cc:c4:
                    74:d1:17:b5:3b:47:9c:38:0f:3b:92:74:fb:ea:27:
                    45:44:8a:9a:2a:4d:10:25:8e:77:ce:1a:09:c9:73:
                    19:fe:dc:70:36:5e:8c:fa:8f:4c:84:bb:f7:72:e4:
                    94:4f:fc:47:2a:7d:89:92:a3:2b:5a:69:9c:c8:5a:
                    10:39:32:61:7d:0a:78:19:b4:36:eb:ac:4c:d6:af:
                    75:00:14:4e:15:2f:5f:83:ee:62:f5:ac:7b:0c:81:
                    ba:a2:08:36:7b:f0:ef:63:31:62:fb:86:a6:cf:da:
                    36:83:44:8d:75:28:b6:e4:10:f3:32:dd:8a:6c:5b:
                    ee:4f:f1:1e:53:0b:13:7c:c7:bc:f7:9e:32:80:1e:
                    63:3e:92:75:2f:c5:21:5e:f0:2a:ac:e2:34:e4:17:
                    b2:34:f7:e8:2a:12:8a:21:b8:03:e7:b6:d8:f8:32:
                    b5:fe:71:45:52:98:de:b9:3d:41:f5:90:a5:76:83:
                    c1:18:ca:50:5d:2c:52:8b:6e:4f:a7:5b:bb:d8:e3:
                    14:25:70:de:d1:c7:9d:59:cf:24:46:c7:f5:6e:6f:
                    83:66:ed:1b:1d:3e:51:04:94:67:64:df:51:22:3c:
                    c0:e1:24:0a:37:6a:dc:6a:8b:fd:45:5b:96:2d:03:
                    ac:63
                Exponent: 65537 (0x10001)
        X509v3 extensions:
            X509v3 Basic Constraints: 
                CA:FALSE
            X509v3 Subject Key Identifier: 
                32:9F:9F:30:24:73:73:CB:8D:53:3A:80:23:EB:5B:5D:4C:DD:06:01
            X509v3 Authority Key Identifier: 
                A4:FD:B9:39:1B:81:B3:AA:EB:88:1D:D4:81:A9:B5:11:70:CC:A7:E1
            Authority Information Access: 
                OCSP - URI:http://server.w1.fi:8888/
            X509v3 Extended Key Usage: 
                TLS Web Client Authentication
    Signature Algorithm: sha256WithRSAEncryption
    Signature Value:
        0a:b1:c5:d8:52:5a:c0:6a:de:93:fe:10:83:61:c0:57:79:59:
        a3:34:f2:4a:b6:d0:78:14:25:ec:8b:94:5d:e4:3a:12:3e:e9:
        2f:d3:88:93:83:8b:1d:56:97:8d:be:63:c5:7f:e7:b3:43:2b:
        8f:da:92:55:2f:02:7e:a8:0d:0b:75:59:95:d2:d8:5e:8b:ca:
        e7:bc:73:24:17:2d:bf:54:83:65:cc:07:29:6a:9a:3a:47:2b:
        08:0e:af:ba:04:2e:e8:cb:ac:e7:ee:32:b0:e2:7c:86:3d:22:
        3f:06:3f:00:28:53:fc:57:a9:c8:21:35:46:d2:f4:f8:d7:9b:
        2b:92:15:0b:a6:7d:8b:45:84:49:ea:c8:c2:50:c9:13:12:c7:
        2c:6e:cc:fe:5f:eb:69:7d:32:fa:be:a0:06:36:0b:1b:c1:a5:
        71:06:e6:86:07:ab:5f:2c:94:da:6f:e5:47:1f:78:e6:76:68:
        c9:3c:34:19:b8:86:20:d7:0f:da:0b:eb:ea:71:e6:bf:4a:1f:
        48:2b:04:12:67:62:3c:7a:d8:f5:36:1d:46:b3:17:ff:06:fc:
        f9:c4:f3:8e:d7:30:aa:cd:64:a5:48:5a:ac:0d:eb:21:67:c1:
        b1:10:a5:ef:88:ba:47:fb:51:dc:04:1b:b9:c9:d3:e2:a5:bf:
        c7:e4:8d:f6
-----BEGIN CERTIFICATE-----
MIIDlDCCAnygAwIBAgIJANjT46bL482KMA0GCSqGSIb3DQEBCwUAMEExCzAJBgNV
BAYTAkZJMRAwDgYDVQQHDAdUdXVzdWxhMQ4wDAYDVQQKDAV3MS5maTEQMA4GA1UE
AwwHUm9vdCBDQTAeFw0yNDA0MTYxNTMyNDJaFw0yNTA0MTYxNTMyNDJaMDUxCzAJ
BgNVBAYTAkZJMQ4wDAYDVQQKDAV3MS5maTEWMBQGA1UEAwwNc2VydmVyNS53MS5m
aTCCASIwDQYJKoZIhvcNAQEBBQADggEPADCCAQoCggEBAKWUYIC4yGEYjAKd3MzE
dNEXtTtHnDgPO5J0++onRUSKmipNECWOd84aCclzGf7ccDZejPqPTIS793LklE/8
Ryp9iZKjK1ppnMhaEDkyYX0KeBm0NuusTNavdQAUThUvX4PuYvWsewyBuqIINnvw
72MxYvuGps/aNoNEjXUotuQQ8zLdimxb7k/xHlMLE3zHvPeeMoAeYz6SdS/FIV7w
KqziNOQXsjT36CoSiiG4A+e22Pgytf5xRVKY3rk9QfWQpXaDwRjKUF0sUotuT6db
u9jjFCVw3tHHnVnPJEbH9W5vg2btGx0+UQSUZ2TfUSI8wOEkCjdq3GqL/UVbli0D
rGMCAwEAAaOBmjCBlzAJBgNVHRMEAjAAMB0GA1UdDgQWBBQyn58wJHNzy41TOoAj
61tdTN0GATAfBgNVHSMEGDAWgBSk/bk5G4GzquuIHdSBqbURcMyn4TA1BggrBgEF
BQcBAQQpMCcwJQYIKwYBBQUHMAGGGWh0dHA6Ly9zZXJ2ZXIudzEuZmk6ODg4OC8w
EwYDVR0lBAwwCgYIKwYBBQUHAwIwDQYJKoZIhvcNAQELBQADggEBAAqxxdhSWsBq
3pP+EINhwFd5WaM08kq20HgUJeyLlF3kOhI+6S/TiJODix1Wl42+Y8V/57NDK4/a
klUvAn6oDQt1WZXS2F6Lyue8cyQXLb9Ug2XMBylqmjpHKwgOr7oELujLrOfuMrDi
fIY9Ij8GPwAoU/xXqcghNUbS9PjXmyuSFQumfYtFhEnqyMJQyRMSxyxuzP5f62l9
Mvq+oAY2CxvBpXEG5oYHq18slNpv5UcfeOZ2aMk8NBm4hiDXD9oL6+px5r9KH0gr
BBJnYjx62PU2HUazF/8G/PnE847XMKrNZKVIWqwN6yFnwbEQpe+Iukf7UdwEG7nJ
0+Klv8fkjfY=
-----END CERTIFICATE-----
