Certificate:
    Data:
        Version: 3 (0x2)
        Serial Number:
            d8:d3:e3:a6:cb:e3:cd:7e
        Signature Algorithm: sha256WithRSAEncryption
        Issuer: C=FI, L=Tuusula, O=w1.fi, CN=Root CA
        Validity
            Not Before: Apr 17 15:09:51 2023 GMT
            Not After : Apr 16 15:09:51 2024 GMT
        Subject: C=FI, O=w1.fi, CN=server3.w1.fi
        Subject Public Key Info:
            Public Key Algorithm: rsaEncryption
                RSA Public-Key: (2048 bit)
                Modulus:
                    00:c2:eb:ad:04:6f:4c:eb:23:b8:92:4e:75:dc:00:
                    d0:0d:d9:ad:09:21:f8:12:4a:2d:cd:db:7d:63:a1:
                    32:12:8e:b8:e3:bd:df:95:39:3a:17:65:54:f8:20:
                    d6:71:37:7d:b7:b4:72:31:7a:7a:3d:ba:74:72:f3:
                    ac:9d:16:38:35:1b:7d:50:3b:ad:96:5d:a7:c0:76:
                    0b:bb:4c:06:a8:d0:f7:2d:3d:94:a5:14:26:1a:11:
                    d8:42:1b:2d:4e:6e:60:9d:6a:cf:22:db:36:65:e2:
                    17:35:bc:69:2e:ab:30:e5:cd:fc:9a:e4:4f:0f:d1:
                    01:c3:e6:33:71:31:cd:6f:da:8c:21:9d:f7:1b:d1:
                    ed:7e:39:7a:fd:69:a3:88:1c:e6:f6:d3:3b:1a:1e:
                    d3:70:c3:ad:35:2a:22:a4:de:60:90:37:5d:e7:e0:
                    ce:9b:7d:4c:b5:cb:41:1b:9c:96:51:df:58:4d:b7:
                    67:da:95:25:60:8a:ff:6c:62:84:da:d6:24:b9:65:
                    d9:7a:59:f8:c8:bd:03:be:f6:17:d8:0e:86:ae:9a:
                    4c:7d:53:f6:b1:0e:82:cd:06:61:77:dd:46:5c:fd:
                    45:6a:f2:e8:22:ca:63:8b:d3:1c:f6:4f:10:ec:ea:
                    1a:08:1e:38:3d:80:6c:a3:48:47:f2:16:2a:07:5b:
                    f7:89
                Exponent: 65537 (0x10001)
        X509v3 extensions:
            X509v3 Basic Constraints: 
                CA:FALSE
            X509v3 Subject Key Identifier: 
                5E:84:D6:31:98:17:71:F8:63:5C:32:5B:7D:33:C0:D4:FA:36:A7:6A
            X509v3 Authority Key Identifier: 
                keyid:A4:FD:B9:39:1B:81:B3:AA:EB:88:1D:D4:81:A9:B5:11:70:CC:A7:E1

            Authority Information Access: 
                OCSP - URI:http://server.w1.fi:8888/

            X509v3 Extended Key Usage: 
                TLS Web Server Authentication
    Signature Algorithm: sha256WithRSAEncryption
         9c:96:6e:9e:b2:89:87:ea:eb:c2:78:03:82:4e:26:13:b7:14:
         77:15:3f:ad:71:66:d7:b1:64:d6:d3:82:1a:65:55:36:5b:39:
         8e:a8:6c:4e:ff:91:43:46:bf:9c:d9:a2:e9:1d:04:04:9a:cb:
         e4:3c:cb:c0:54:48:81:56:b3:b1:d4:b7:8d:cc:dc:17:eb:04:
         18:b4:bb:9d:41:be:e4:04:41:eb:9c:ef:ff:5d:28:a7:49:fb:
         9e:3c:b7:49:41:d4:6b:46:cb:ec:b6:eb:b3:42:c8:16:7e:44:
         2a:46:fe:35:c0:49:c1:f3:ca:f4:17:03:6e:79:4c:7b:09:08:
         1c:41:a6:41:f0:4b:ee:9d:40:8c:c6:57:fc:8d:f3:80:93:a8:
         4a:5e:07:f6:c6:4a:b4:8f:fd:d5:c7:3b:c4:7c:75:fc:58:18:
         05:c9:21:a4:1a:b8:9f:1c:63:0b:9e:48:3b:45:f4:f5:08:3b:
         70:48:e2:e1:1b:34:53:8b:16:f3:88:15:cd:92:d3:21:ec:5d:
         88:55:0a:6f:02:33:f2:8c:57:0f:a5:6c:ae:fb:f2:73:a8:0a:
         9f:6f:fa:17:db:a8:a5:fb:71:18:d3:0a:5e:05:48:b7:77:7a:
         55:96:16:e5:13:45:d2:0b:a2:92:01:bb:72:77:18:52:d1:c7:
         5f:e8:73:f6
-----BEGIN CERTIFICATE-----
MIIDlDCCAnygAwIBAgIJANjT46bL481+MA0GCSqGSIb3DQEBCwUAMEExCzAJBgNV
BAYTAkZJMRAwDgYDVQQHDAdUdXVzdWxhMQ4wDAYDVQQKDAV3MS5maTEQMA4GA1UE
AwwHUm9vdCBDQTAeFw0yMzA0MTcxNTA5NTFaFw0yNDA0MTYxNTA5NTFaMDUxCzAJ
BgNVBAYTAkZJMQ4wDAYDVQQKDAV3MS5maTEWMBQGA1UEAwwNc2VydmVyMy53MS5m
aTCCASIwDQYJKoZIhvcNAQEBBQADggEPADCCAQoCggEBAMLrrQRvTOsjuJJOddwA
0A3ZrQkh+BJKLc3bfWOhMhKOuOO935U5OhdlVPgg1nE3fbe0cjF6ej26dHLzrJ0W
ODUbfVA7rZZdp8B2C7tMBqjQ9y09lKUUJhoR2EIbLU5uYJ1qzyLbNmXiFzW8aS6r
MOXN/JrkTw/RAcPmM3ExzW/ajCGd9xvR7X45ev1po4gc5vbTOxoe03DDrTUqIqTe
YJA3Xefgzpt9TLXLQRucllHfWE23Z9qVJWCK/2xihNrWJLll2XpZ+Mi9A772F9gO
hq6aTH1T9rEOgs0GYXfdRlz9RWry6CLKY4vTHPZPEOzqGggeOD2AbKNIR/IWKgdb
94kCAwEAAaOBmjCBlzAJBgNVHRMEAjAAMB0GA1UdDgQWBBRehNYxmBdx+GNcMlt9
M8DU+janajAfBgNVHSMEGDAWgBSk/bk5G4GzquuIHdSBqbURcMyn4TA1BggrBgEF
BQcBAQQpMCcwJQYIKwYBBQUHMAGGGWh0dHA6Ly9zZXJ2ZXIudzEuZmk6ODg4OC8w
EwYDVR0lBAwwCgYIKwYBBQUHAwEwDQYJKoZIhvcNAQELBQADggEBAJyWbp6yiYfq
68J4A4JOJhO3FHcVP61xZtexZNbTghplVTZbOY6obE7/kUNGv5zZoukdBASay+Q8
y8BUSIFWs7HUt43M3BfrBBi0u51BvuQEQeuc7/9dKKdJ+548t0lB1GtGy+y267NC
yBZ+RCpG/jXAScHzyvQXA255THsJCBxBpkHwS+6dQIzGV/yN84CTqEpeB/bGSrSP
/dXHO8R8dfxYGAXJIaQauJ8cYwueSDtF9PUIO3BI4uEbNFOLFvOIFc2S0yHsXYhV
Cm8CM/KMVw+lbK778nOoCp9v+hfbqKX7cRjTCl4FSLd3elWWFuUTRdILopIBu3J3
GFLRx1/oc/Y=
-----END CERTIFICATE-----
