Certificate:
    Data:
        Version: 3 (0x2)
        Serial Number:
            d8:d3:e3:a6:cb:e3:cd:7d
        Signature Algorithm: sha256WithRSAEncryption
        Issuer: C=FI, L=Tuusula, O=w1.fi, CN=Root CA
        Validity
            Not Before: Apr 17 15:09:51 2023 GMT
            Not After : Apr 16 15:09:51 2024 GMT
        Subject: C=FI, O=w1.fi, CN=server.w1.fi
        Subject Public Key Info:
            Public Key Algorithm: rsaEncryption
                RSA Public-Key: (2048 bit)
                Modulus:
                    00:fd:0e:5e:cd:19:2c:6a:41:83:d9:2c:0e:36:cd:
                    09:b0:8f:b2:c9:8c:c8:d2:03:38:6e:54:bc:43:ee:
                    ce:f8:59:b1:e9:3f:6d:d4:5e:e3:c5:73:19:3d:0b:
                    bc:29:d7:d0:6e:75:00:35:fc:f7:65:b1:b6:0f:cb:
                    06:49:cf:a9:4e:3d:c2:64:4b:18:24:0a:70:b8:6e:
                    54:dc:90:3f:6c:18:fd:b6:88:ab:37:dc:8b:4b:b5:
                    e1:ff:ed:bb:45:05:a3:f0:aa:51:2b:f1:79:06:7f:
                    2f:cd:5d:fc:e6:8a:af:1b:b9:7b:ca:43:75:01:1d:
                    8e:2d:d9:11:13:86:fb:3c:4b:60:a4:29:49:e3:d2:
                    20:20:cb:5c:0d:9c:d2:9c:30:21:11:bc:b3:74:df:
                    64:b0:b7:67:ee:6a:df:af:3d:18:02:b7:dc:e5:54:
                    75:b5:6c:40:c4:b0:8a:1b:c6:fd:ab:1e:b9:ef:d1:
                    83:09:0d:55:ba:17:88:4e:d0:bd:cf:73:36:7c:28:
                    4b:f6:aa:48:d4:e8:fb:25:d8:1d:af:c9:68:73:ac:
                    46:ae:cb:eb:79:36:57:ad:c3:70:02:15:6d:f0:a5:
                    43:73:ab:72:04:b1:16:60:74:0e:4a:c1:8f:52:28:
                    1a:95:7e:ab:d0:04:f6:fa:11:da:1b:d1:99:a4:4f:
                    9e:ed
                Exponent: 65537 (0x10001)
        X509v3 extensions:
            X509v3 Basic Constraints: 
                CA:FALSE
            X509v3 Subject Key Identifier: 
                71:26:7A:1F:72:81:97:24:11:AA:C0:75:FA:BF:31:10:69:49:D0:E7
            X509v3 Authority Key Identifier: 
                keyid:A4:FD:B9:39:1B:81:B3:AA:EB:88:1D:D4:81:A9:B5:11:70:CC:A7:E1

            Authority Information Access: 
                OCSP - URI:http://server.w1.fi:8888/

            X509v3 Subject Alternative Name: 
                DNS:server.w1.fi
            X509v3 Extended Key Usage: 
                TLS Web Server Authentication
    Signature Algorithm: sha256WithRSAEncryption
         49:d6:7d:51:e3:f9:16:19:7f:07:12:88:8a:6a:2a:fa:39:99:
         24:58:81:60:e9:56:a2:a7:7c:68:2a:fb:3a:92:bf:c2:c6:f3:
         89:88:11:6f:50:59:9a:e8:7f:ef:04:23:6b:ef:b8:47:a5:a5:
         19:37:12:8e:01:6f:be:28:7c:4b:17:56:e6:1f:5e:67:06:e9:
         c8:4f:f2:aa:87:d8:29:29:9c:33:94:28:75:52:c6:74:28:34:
         56:d6:ce:0e:c4:4a:50:38:09:70:b2:8f:bc:87:59:10:d4:7b:
         bf:c2:b1:cf:2e:a6:63:97:73:2d:72:42:dc:4c:7d:90:73:57:
         e5:08:65:bb:9c:84:a0:00:a9:bc:06:d5:e0:97:f5:14:03:7e:
         64:78:18:75:90:be:9c:eb:5f:59:c1:85:cf:e5:25:33:c3:6c:
         d2:56:b1:b5:eb:ff:00:85:f8:c8:d3:70:b8:c2:dc:cf:76:60:
         8b:4e:a0:7e:dc:a9:e8:5c:bf:e5:7b:66:63:25:f0:f0:cf:8d:
         7e:2d:89:27:40:03:35:0e:80:bc:fb:e2:39:66:54:f6:d3:1f:
         1c:b6:11:31:42:a9:5a:ca:39:a2:56:0e:dd:11:26:c7:ac:c5:
         f4:dc:d4:c6:b9:d4:fa:68:1f:bf:33:c0:fe:f6:29:d5:d4:4d:
         80:70:56:a2
-----BEGIN CERTIFICATE-----
MIIDrDCCApSgAwIBAgIJANjT46bL4819MA0GCSqGSIb3DQEBCwUAMEExCzAJBgNV
BAYTAkZJMRAwDgYDVQQHDAdUdXVzdWxhMQ4wDAYDVQQKDAV3MS5maTEQMA4GA1UE
AwwHUm9vdCBDQTAeFw0yMzA0MTcxNTA5NTFaFw0yNDA0MTYxNTA5NTFaMDQxCzAJ
BgNVBAYTAkZJMQ4wDAYDVQQKDAV3MS5maTEVMBMGA1UEAwwMc2VydmVyLncxLmZp
MIIBIjANBgkqhkiG9w0BAQEFAAOCAQ8AMIIBCgKCAQEA/Q5ezRksakGD2SwONs0J
sI+yyYzI0gM4blS8Q+7O+Fmx6T9t1F7jxXMZPQu8KdfQbnUANfz3ZbG2D8sGSc+p
Tj3CZEsYJApwuG5U3JA/bBj9toirN9yLS7Xh/+27RQWj8KpRK/F5Bn8vzV385oqv
G7l7ykN1AR2OLdkRE4b7PEtgpClJ49IgIMtcDZzSnDAhEbyzdN9ksLdn7mrfrz0Y
Arfc5VR1tWxAxLCKG8b9qx6579GDCQ1VuheITtC9z3M2fChL9qpI1Oj7Jdgdr8lo
c6xGrsvreTZXrcNwAhVt8KVDc6tyBLEWYHQOSsGPUigalX6r0AT2+hHaG9GZpE+e
7QIDAQABo4GzMIGwMAkGA1UdEwQCMAAwHQYDVR0OBBYEFHEmeh9ygZckEarAdfq/
MRBpSdDnMB8GA1UdIwQYMBaAFKT9uTkbgbOq64gd1IGptRFwzKfhMDUGCCsGAQUF
BwEBBCkwJzAlBggrBgEFBQcwAYYZaHR0cDovL3NlcnZlci53MS5maTo4ODg4LzAX
BgNVHREEEDAOggxzZXJ2ZXIudzEuZmkwEwYDVR0lBAwwCgYIKwYBBQUHAwEwDQYJ
KoZIhvcNAQELBQADggEBAEnWfVHj+RYZfwcSiIpqKvo5mSRYgWDpVqKnfGgq+zqS
v8LG84mIEW9QWZrof+8EI2vvuEelpRk3Eo4Bb74ofEsXVuYfXmcG6chP8qqH2Ckp
nDOUKHVSxnQoNFbWzg7ESlA4CXCyj7yHWRDUe7/Csc8upmOXcy1yQtxMfZBzV+UI
ZbuchKAAqbwG1eCX9RQDfmR4GHWQvpzrX1nBhc/lJTPDbNJWsbXr/wCF+MjTcLjC
3M92YItOoH7cqehcv+V7ZmMl8PDPjX4tiSdAAzUOgLz74jlmVPbTHxy2ETFCqVrK
OaJWDt0RJsesxfTc1Ma51PpoH78zwP72KdXUTYBwVqI=
-----END CERTIFICATE-----
