Certificate:
    Data:
        Version: 3 (0x2)
        Serial Number:
            d8:d3:e3:a6:cb:e3:cd:88
        Signature Algorithm: sha256WithRSAEncryption
        Issuer: C=FI, L=Tuusula, O=w1.fi, CN=Root CA
        Validity
            Not Before: Apr 16 15:32:42 2024 GMT
            Not After : Apr 16 15:32:42 2025 GMT
        Subject: C=FI, O=w1.fi, CN=server3.w1.fi
        Subject Public Key Info:
            Public Key Algorithm: rsaEncryption
                Public-Key: (2048 bit)
                Modulus:
                    00:c2:eb:ad:04:6f:4c:eb:23:b8:92:4e:75:dc:00:
                    d0:0d:d9:ad:09:21:f8:12:4a:2d:cd:db:7d:63:a1:
                    32:12:8e:b8:e3:bd:df:95:39:3a:17:65:54:f8:20:
                    d6:71:37:7d:b7:b4:72:31:7a:7a:3d:ba:74:72:f3:
                    ac:9d:16:38:35:1b:7d:50:3b:ad:96:5d:a7:c0:76:
                    0b:bb:4c:06:a8:d0:f7:2d:3d:94:a5:14:26:1a:11:
                    d8:42:1b:2d:4e:6e:60:9d:6a:cf:22:db:36:65:e2:
                    17:35:bc:69:2e:ab:30:e5:cd:fc:9a:e4:4f:0f:d1:
                    01:c3:e6:33:71:31:cd:6f:da:8c:21:9d:f7:1b:d1:
                    ed:7e:39:7a:fd:69:a3:88:1c:e6:f6:d3:3b:1a:1e:
                    d3:70:c3:ad:35:2a:22:a4:de:60:90:37:5d:e7:e0:
                    ce:9b:7d:4c:b5:cb:41:1b:9c:96:51:df:58:4d:b7:
                    67:da:95:25:60:8a:ff:6c:62:84:da:d6:24:b9:65:
                    d9:7a:59:f8:c8:bd:03:be:f6:17:d8:0e:86:ae:9a:
                    4c:7d:53:f6:b1:0e:82:cd:06:61:77:dd:46:5c:fd:
                    45:6a:f2:e8:22:ca:63:8b:d3:1c:f6:4f:10:ec:ea:
                    1a:08:1e:38:3d:80:6c:a3:48:47:f2:16:2a:07:5b:
                    f7:89
                Exponent: 65537 (0x10001)
        X509v3 extensions:
            X509v3 Basic Constraints: 
                CA:FALSE
            X509v3 Subject Key Identifier: 
                5E:84:D6:31:98:17:71:F8:63:5C:32:5B:7D:33:C0:D4:FA:36:A7:6A
            X509v3 Authority Key Identifier: 
                A4:FD:B9:39:1B:81:B3:AA:EB:88:1D:D4:81:A9:B5:11:70:CC:A7:E1
            Authority Information Access: 
                OCSP - URI:http://server.w1.fi:8888/
            X509v3 Extended Key Usage: 
                TLS Web Server Authentication
    Signature Algorithm: sha256WithRSAEncryption
    Signature Value:
        8d:46:ed:b7:5d:3f:fa:5a:10:0a:3d:51:aa:02:4e:39:db:14:
        53:2f:cd:91:52:cc:bd:f6:55:b1:4d:24:dc:21:b0:ca:18:1d:
        4d:f6:4d:46:0f:fd:f8:cb:7c:d2:51:0f:fc:cd:ed:72:ca:26:
        44:31:59:12:9d:78:c4:cf:ae:a7:8f:b3:9e:03:39:4d:b5:e0:
        9d:5a:57:ac:44:3e:59:e3:e6:1f:63:71:21:ab:5e:f9:df:6d:
        cc:f0:cc:94:49:37:79:9a:35:75:f2:5d:e9:fb:f1:e1:77:35:
        30:38:8f:6a:c6:e7:31:44:62:74:9f:67:6e:fd:51:a3:db:0f:
        f4:93:b1:68:97:d4:7f:81:59:d1:dc:ed:56:f2:6b:58:93:fb:
        eb:84:95:aa:00:d2:15:fa:a0:93:af:1c:65:83:73:bc:78:54:
        05:23:83:6f:41:c2:14:9f:f5:91:b6:98:a8:77:37:22:81:67:
        10:cf:9a:5c:0c:fc:f8:89:96:cf:2a:6a:49:1a:cb:9a:c1:19:
        c2:ae:75:25:4b:8d:fb:3e:ff:88:7a:89:03:13:52:44:d8:eb:
        08:24:53:f9:be:3e:1b:26:4d:aa:4e:7a:3e:38:4b:f9:d1:48:
        c0:96:02:08:ff:a0:81:92:f2:a7:91:64:ee:0c:cd:b4:81:fb:
        e5:62:40:e0
-----BEGIN CERTIFICATE-----
MIIDlDCCAnygAwIBAgIJANjT46bL482IMA0GCSqGSIb3DQEBCwUAMEExCzAJBgNV
BAYTAkZJMRAwDgYDVQQHDAdUdXVzdWxhMQ4wDAYDVQQKDAV3MS5maTEQMA4GA1UE
AwwHUm9vdCBDQTAeFw0yNDA0MTYxNTMyNDJaFw0yNTA0MTYxNTMyNDJaMDUxCzAJ
BgNVBAYTAkZJMQ4wDAYDVQQKDAV3MS5maTEWMBQGA1UEAwwNc2VydmVyMy53MS5m
aTCCASIwDQYJKoZIhvcNAQEBBQADggEPADCCAQoCggEBAMLrrQRvTOsjuJJOddwA
0A3ZrQkh+BJKLc3bfWOhMhKOuOO935U5OhdlVPgg1nE3fbe0cjF6ej26dHLzrJ0W
ODUbfVA7rZZdp8B2C7tMBqjQ9y09lKUUJhoR2EIbLU5uYJ1qzyLbNmXiFzW8aS6r
MOXN/JrkTw/RAcPmM3ExzW/ajCGd9xvR7X45ev1po4gc5vbTOxoe03DDrTUqIqTe
YJA3Xefgzpt9TLXLQRucllHfWE23Z9qVJWCK/2xihNrWJLll2XpZ+Mi9A772F9gO
hq6aTH1T9rEOgs0GYXfdRlz9RWry6CLKY4vTHPZPEOzqGggeOD2AbKNIR/IWKgdb
94kCAwEAAaOBmjCBlzAJBgNVHRMEAjAAMB0GA1UdDgQWBBRehNYxmBdx+GNcMlt9
M8DU+janajAfBgNVHSMEGDAWgBSk/bk5G4GzquuIHdSBqbURcMyn4TA1BggrBgEF
BQcBAQQpMCcwJQYIKwYBBQUHMAGGGWh0dHA6Ly9zZXJ2ZXIudzEuZmk6ODg4OC8w
EwYDVR0lBAwwCgYIKwYBBQUHAwEwDQYJKoZIhvcNAQELBQADggEBAI1G7bddP/pa
EAo9UaoCTjnbFFMvzZFSzL32VbFNJNwhsMoYHU32TUYP/fjLfNJRD/zN7XLKJkQx
WRKdeMTPrqePs54DOU214J1aV6xEPlnj5h9jcSGrXvnfbczwzJRJN3maNXXyXen7
8eF3NTA4j2rG5zFEYnSfZ279UaPbD/STsWiX1H+BWdHc7Vbya1iT++uElaoA0hX6
oJOvHGWDc7x4VAUjg29BwhSf9ZG2mKh3NyKBZxDPmlwM/PiJls8qakkay5rBGcKu
dSVLjfs+/4h6iQMTUkTY6wgkU/m+PhsmTapOej44S/nRSMCWAgj/oIGS8qeRZO4M
zbSB++ViQOA=
-----END CERTIFICATE-----
