Certificate:
    Data:
        Version: 3 (0x2)
        Serial Number:
            d8:d3:e3:a6:cb:e3:cd:81
        Signature Algorithm: sha256WithRSAEncryption
        Issuer: C=FI, L=Tuusula, O=w1.fi, CN=Root CA
        Validity
            Not Before: Apr 17 15:09:51 2023 GMT
            Not After : Apr 16 15:09:51 2024 GMT
        Subject: C=FI, O=w1.fi, CN=server6.w1.fi
        Subject Public Key Info:
            Public Key Algorithm: rsaEncryption
                RSA Public-Key: (2048 bit)
                Modulus:
                    00:d0:23:f4:80:12:be:4a:64:4d:af:99:af:52:ef:
                    8d:f5:73:9a:1a:28:2b:92:e8:d4:90:25:3e:85:47:
                    9f:c9:c4:b9:7a:35:24:84:2f:1e:51:16:66:d3:ac:
                    31:ea:f1:63:a4:4c:ea:26:f0:fa:61:c7:9f:f2:74:
                    69:6a:78:09:c5:c9:89:74:db:6d:ba:c7:b6:b1:f0:
                    61:1f:ef:3a:1c:d5:c6:fc:95:5d:9b:37:d6:5b:cb:
                    37:93:59:ed:50:f2:6a:a2:01:5c:9e:22:af:3a:31:
                    d9:ee:eb:33:49:93:4e:46:ee:9d:7b:86:86:da:2b:
                    1d:f9:f3:a2:01:7d:0d:55:1c:3b:67:e9:c9:fb:bc:
                    a9:52:4c:4a:21:85:68:50:2f:e4:05:c1:3f:e0:b3:
                    a3:25:d4:6c:2e:61:7c:9d:d5:da:93:bb:19:fe:ea:
                    bf:f2:c8:f9:dc:de:48:54:e1:fe:d4:b5:94:5a:3f:
                    2c:2b:8c:b1:6c:ef:3a:b0:d2:0c:2c:13:75:61:db:
                    97:6b:fa:6b:f9:9d:f7:14:aa:35:72:d8:4c:0b:a1:
                    5c:08:c5:87:d4:e4:87:1d:6b:0a:50:1f:b5:0e:3f:
                    bb:36:8b:c6:e0:bd:1e:1a:e1:1c:f3:37:a4:91:65:
                    4c:43:b4:9e:cc:1b:61:68:09:bd:1e:ab:61:bd:c1:
                    91:71
                Exponent: 65537 (0x10001)
        X509v3 extensions:
            X509v3 Basic Constraints: 
                CA:FALSE
            X509v3 Subject Key Identifier: 
                AB:D2:88:CA:9C:44:26:89:2E:C0:B9:8D:46:DD:5C:69:02:9E:01:CB
            X509v3 Authority Key Identifier: 
                keyid:A4:FD:B9:39:1B:81:B3:AA:EB:88:1D:D4:81:A9:B5:11:70:CC:A7:E1

            Authority Information Access: 
                OCSP - URI:http://server.w1.fi:8888/

            X509v3 Extended Key Usage: 
                TLS Web Client Authentication, TLS Web Server Authentication
    Signature Algorithm: sha256WithRSAEncryption
         07:fa:dc:0b:23:68:14:cc:92:f1:a7:9f:b9:dd:d0:45:3e:cd:
         5e:67:d3:f4:9f:31:d5:4f:67:70:06:e9:78:b6:24:ad:cf:4e:
         bd:b5:e1:51:9d:e0:70:3f:91:f5:bf:0d:8d:d4:da:89:6d:00:
         63:8a:2e:b8:94:c7:64:ed:5e:ad:4c:99:f4:97:81:6c:87:1c:
         e3:d3:1d:4f:0a:e3:d3:4a:e5:59:a4:15:e6:e4:a4:79:f4:bb:
         b1:d6:b2:3f:70:df:d0:7d:ea:c5:43:11:49:65:ad:d2:bf:ab:
         69:6a:fd:ae:44:4f:88:9d:fb:d5:ed:0a:a7:94:05:b4:44:0f:
         05:93:47:ac:23:fc:66:a7:8a:53:7d:73:6f:10:48:6b:02:e7:
         24:06:3e:66:81:c9:b3:8f:61:f1:ae:73:74:df:fe:9d:e1:19:
         3e:aa:96:04:9c:51:1b:d2:96:bb:27:b1:3a:e1:79:82:08:77:
         3d:15:10:21:9a:3a:59:9c:41:8b:e1:12:fe:6c:a3:89:97:35:
         08:7d:b5:9e:be:a2:a4:3f:d8:2e:61:f3:71:2f:37:6d:46:32:
         77:21:93:3a:50:32:51:ec:d9:1e:48:c8:96:f7:34:8e:23:f0:
         19:7e:57:e8:3f:69:d6:87:26:17:20:73:c8:74:40:4c:fa:3c:
         79:e3:c0:5d
-----BEGIN CERTIFICATE-----
MIIDnjCCAoagAwIBAgIJANjT46bL482BMA0GCSqGSIb3DQEBCwUAMEExCzAJBgNV
BAYTAkZJMRAwDgYDVQQHDAdUdXVzdWxhMQ4wDAYDVQQKDAV3MS5maTEQMA4GA1UE
AwwHUm9vdCBDQTAeFw0yMzA0MTcxNTA5NTFaFw0yNDA0MTYxNTA5NTFaMDUxCzAJ
BgNVBAYTAkZJMQ4wDAYDVQQKDAV3MS5maTEWMBQGA1UEAwwNc2VydmVyNi53MS5m
aTCCASIwDQYJKoZIhvcNAQEBBQADggEPADCCAQoCggEBANAj9IASvkpkTa+Zr1Lv
jfVzmhooK5Lo1JAlPoVHn8nEuXo1JIQvHlEWZtOsMerxY6RM6ibw+mHHn/J0aWp4
CcXJiXTbbbrHtrHwYR/vOhzVxvyVXZs31lvLN5NZ7VDyaqIBXJ4irzox2e7rM0mT
TkbunXuGhtorHfnzogF9DVUcO2fpyfu8qVJMSiGFaFAv5AXBP+CzoyXUbC5hfJ3V
2pO7Gf7qv/LI+dzeSFTh/tS1lFo/LCuMsWzvOrDSDCwTdWHbl2v6a/md9xSqNXLY
TAuhXAjFh9Tkhx1rClAftQ4/uzaLxuC9HhrhHPM3pJFlTEO0nswbYWgJvR6rYb3B
kXECAwEAAaOBpDCBoTAJBgNVHRMEAjAAMB0GA1UdDgQWBBSr0ojKnEQmiS7AuY1G
3VxpAp4ByzAfBgNVHSMEGDAWgBSk/bk5G4GzquuIHdSBqbURcMyn4TA1BggrBgEF
BQcBAQQpMCcwJQYIKwYBBQUHMAGGGWh0dHA6Ly9zZXJ2ZXIudzEuZmk6ODg4OC8w
HQYDVR0lBBYwFAYIKwYBBQUHAwIGCCsGAQUFBwMBMA0GCSqGSIb3DQEBCwUAA4IB
AQAH+twLI2gUzJLxp5+53dBFPs1eZ9P0nzHVT2dwBul4tiStz069teFRneBwP5H1
vw2N1NqJbQBjii64lMdk7V6tTJn0l4Fshxzj0x1PCuPTSuVZpBXm5KR59Lux1rI/
cN/QferFQxFJZa3Sv6tpav2uRE+InfvV7QqnlAW0RA8Fk0esI/xmp4pTfXNvEEhr
AuckBj5mgcmzj2HxrnN03/6d4Rk+qpYEnFEb0pa7J7E64XmCCHc9FRAhmjpZnEGL
4RL+bKOJlzUIfbWevqKkP9guYfNxLzdtRjJ3IZM6UDJR7NkeSMiW9zSOI/AZflfo
P2nWhyYXIHPIdEBM+jx548Bd
-----END CERTIFICATE-----
