Certificate:
    Data:
        Version: 3 (0x2)
        Serial Number:
            d8:d3:e3:a6:cb:e3:cd:83
        Signature Algorithm: sha256WithRSAEncryption
        Issuer: C=FI, L=Tuusula, O=w1.fi, CN=Root CA
        Validity
            Not Before: Apr 17 15:09:51 2023 GMT
            Not After : Apr 16 15:09:51 2024 GMT
        Subject: C=FI, O=w1.fi, CN=server-policies.w1.fi
        Subject Public Key Info:
            Public Key Algorithm: rsaEncryption
                RSA Public-Key: (3072 bit)
                Modulus:
                    00:d2:a6:ef:9b:bd:60:63:a1:75:ad:4b:d3:6f:59:
                    5e:84:fa:64:a0:64:24:0b:78:48:fc:8d:66:8b:2f:
                    6e:1d:44:2b:ae:c3:6d:94:ba:cb:a3:34:be:0b:4e:
                    47:8d:5b:d9:99:a6:a8:07:09:87:55:b2:37:7e:47:
                    67:5c:74:5f:2c:83:79:b2:08:47:b4:ec:4f:ef:75:
                    58:67:c6:58:4c:4f:68:c1:18:1a:84:4d:78:23:48:
                    9a:14:38:6e:5b:4a:12:eb:86:c4:f7:4c:38:ac:63:
                    a7:61:fa:b3:64:7c:89:0e:29:f7:9f:f8:75:c3:ef:
                    90:c2:71:96:a1:ab:69:d3:c2:74:13:cf:e8:f7:09:
                    98:ed:3a:79:d6:c4:46:49:93:78:3b:16:a5:a9:dd:
                    f0:eb:bd:44:a7:dc:4e:ce:f7:a7:c9:3f:78:08:8b:
                    05:c6:17:2e:ee:df:11:a0:f7:f5:58:80:76:c2:34:
                    ef:b9:78:be:c4:5c:be:5f:5e:d7:b7:cd:a3:12:c4:
                    e3:76:fc:64:85:64:65:6b:da:5c:c9:38:50:39:89:
                    72:e5:20:ef:b9:0b:cc:32:26:3c:79:5e:4a:8d:78:
                    8d:6a:dd:73:3a:c8:42:27:43:0d:dd:05:1f:bc:84:
                    df:56:2d:7e:98:50:9e:8b:78:b0:e7:fd:a8:39:07:
                    57:05:12:fc:00:ef:89:f0:3f:03:f6:93:5b:b0:44:
                    57:61:61:47:05:6c:c4:16:98:61:b8:93:32:45:39:
                    fb:bb:8e:3b:87:18:5f:3a:07:57:d1:98:89:1d:85:
                    b7:5e:ea:1b:51:79:94:5c:d8:fa:bd:ba:75:00:03:
                    e3:f4:03:cd:5c:db:16:a1:ac:b7:f4:93:7e:ec:9a:
                    b0:e6:9c:4e:5d:3c:ba:01:32:cc:70:ca:49:3c:92:
                    fe:d2:88:81:9d:db:f4:bb:80:fe:ef:89:50:ea:80:
                    95:bd:c4:fa:28:d8:c0:86:61:37:d7:99:2b:8e:b9:
                    06:78:9a:08:44:17:da:19:35:97
                Exponent: 65537 (0x10001)
        X509v3 extensions:
            X509v3 Basic Constraints: 
                CA:FALSE
            X509v3 Subject Key Identifier: 
                3E:AD:0D:4D:7E:FA:A2:4A:D5:F5:31:EA:B6:B4:BF:83:B1:55:7E:C7
            X509v3 Authority Key Identifier: 
                keyid:A4:FD:B9:39:1B:81:B3:AA:EB:88:1D:D4:81:A9:B5:11:70:CC:A7:E1

            Authority Information Access: 
                OCSP - URI:http://server.w1.fi:8888/

            X509v3 Subject Alternative Name: 
                DNS:server-policies.w1.fi
            X509v3 Certificate Policies: 
                Policy: 1.3.6.1.4.1.40808.1.3.1

            X509v3 Extended Key Usage: 
                TLS Web Server Authentication
    Signature Algorithm: sha256WithRSAEncryption
         4f:b5:91:9b:b3:90:a1:78:38:b8:5b:51:13:17:59:7a:13:2e:
         6b:3d:1a:4b:17:7d:87:0a:a7:80:8b:c4:bf:ea:ec:af:e2:42:
         13:c8:2d:33:0c:a1:09:69:37:cd:cb:17:f7:62:f2:b9:3e:40:
         bc:cb:77:20:04:9e:0b:b1:f7:1f:66:48:7f:38:5f:58:fb:b4:
         a8:6b:d3:f0:7d:0d:65:40:1f:5e:c9:ce:4e:92:bf:2c:74:8c:
         c3:61:f7:ef:44:32:84:ae:27:5e:38:1f:c9:f1:e5:28:5a:9a:
         c8:df:1a:14:03:06:f5:76:16:8a:b5:a6:73:87:3d:a0:ab:0e:
         1f:8b:b7:ee:9d:fc:15:56:e8:46:2c:e8:b0:b8:79:6f:a9:41:
         c4:44:11:cb:85:4b:e2:a4:7c:51:1a:c3:6b:86:9f:0f:f2:b9:
         5a:eb:01:8f:67:6f:67:f8:f4:3f:f7:6b:17:e5:8d:96:16:42:
         0b:24:3b:41:b8:d8:15:17:bc:88:f7:b7:52:78:2c:8d:6c:9b:
         c2:c1:e4:57:f2:dd:c6:a2:4f:65:57:8a:83:3b:32:01:5a:e0:
         33:55:67:6a:6c:7e:22:e3:d6:98:9d:41:b3:3d:f2:72:5a:48:
         48:2f:d1:f6:20:a0:a3:3f:f5:7f:9e:31:c7:b9:a9:a2:48:52:
         3b:ff:e2:bc
-----BEGIN CERTIFICATE-----
MIIEWDCCA0CgAwIBAgIJANjT46bL482DMA0GCSqGSIb3DQEBCwUAMEExCzAJBgNV
BAYTAkZJMRAwDgYDVQQHDAdUdXVzdWxhMQ4wDAYDVQQKDAV3MS5maTEQMA4GA1UE
AwwHUm9vdCBDQTAeFw0yMzA0MTcxNTA5NTFaFw0yNDA0MTYxNTA5NTFaMD0xCzAJ
BgNVBAYTAkZJMQ4wDAYDVQQKDAV3MS5maTEeMBwGA1UEAwwVc2VydmVyLXBvbGlj
aWVzLncxLmZpMIIBojANBgkqhkiG9w0BAQEFAAOCAY8AMIIBigKCAYEA0qbvm71g
Y6F1rUvTb1lehPpkoGQkC3hI/I1miy9uHUQrrsNtlLrLozS+C05HjVvZmaaoBwmH
VbI3fkdnXHRfLIN5sghHtOxP73VYZ8ZYTE9owRgahE14I0iaFDhuW0oS64bE90w4
rGOnYfqzZHyJDin3n/h1w++QwnGWoatp08J0E8/o9wmY7Tp51sRGSZN4Oxalqd3w
671Ep9xOzvenyT94CIsFxhcu7t8RoPf1WIB2wjTvuXi+xFy+X17Xt82jEsTjdvxk
hWRla9pcyThQOYly5SDvuQvMMiY8eV5KjXiNat1zOshCJ0MN3QUfvITfVi1+mFCe
i3iw5/2oOQdXBRL8AO+J8D8D9pNbsERXYWFHBWzEFphhuJMyRTn7u447hxhfOgdX
0ZiJHYW3XuobUXmUXNj6vbp1AAPj9APNXNsWoay39JN+7Jqw5pxOXTy6ATLMcMpJ
PJL+0oiBndv0u4D+74lQ6oCVvcT6KNjAhmE315krjrkGeJoIRBfaGTWXAgMBAAGj
gdYwgdMwCQYDVR0TBAIwADAdBgNVHQ4EFgQUPq0NTX76okrV9THqtrS/g7FVfscw
HwYDVR0jBBgwFoAUpP25ORuBs6rriB3Ugam1EXDMp+EwNQYIKwYBBQUHAQEEKTAn
MCUGCCsGAQUFBzABhhlodHRwOi8vc2VydmVyLncxLmZpOjg4ODgvMCAGA1UdEQQZ
MBeCFXNlcnZlci1wb2xpY2llcy53MS5maTAYBgNVHSAEETAPMA0GCysGAQQBgr5o
AQMBMBMGA1UdJQQMMAoGCCsGAQUFBwMBMA0GCSqGSIb3DQEBCwUAA4IBAQBPtZGb
s5CheDi4W1ETF1l6Ey5rPRpLF32HCqeAi8S/6uyv4kITyC0zDKEJaTfNyxf3YvK5
PkC8y3cgBJ4LsfcfZkh/OF9Y+7Soa9PwfQ1lQB9eyc5Okr8sdIzDYffvRDKEride
OB/J8eUoWprI3xoUAwb1dhaKtaZzhz2gqw4fi7funfwVVuhGLOiwuHlvqUHERBHL
hUvipHxRGsNrhp8P8rla6wGPZ29n+PQ/92sX5Y2WFkILJDtBuNgVF7yI97dSeCyN
bJvCweRX8t3Gok9lV4qDOzIBWuAzVWdqbH4i49aYnUGzPfJyWkhIL9H2IKCjP/V/
njHHuamiSFI7/+K8
-----END CERTIFICATE-----
