Certificate:
    Data:
        Version: 3 (0x2)
        Serial Number:
            d8:d3:e3:a6:cb:e3:cd:8b
        Signature Algorithm: sha256WithRSAEncryption
        Issuer: C=FI, L=Tuusula, O=w1.fi, CN=Root CA
        Validity
            Not Before: Apr 16 15:32:42 2024 GMT
            Not After : Apr 16 15:32:42 2025 GMT
        Subject: C=FI, O=w1.fi, CN=server6.w1.fi
        Subject Public Key Info:
            Public Key Algorithm: rsaEncryption
                Public-Key: (2048 bit)
                Modulus:
                    00:d0:23:f4:80:12:be:4a:64:4d:af:99:af:52:ef:
                    8d:f5:73:9a:1a:28:2b:92:e8:d4:90:25:3e:85:47:
                    9f:c9:c4:b9:7a:35:24:84:2f:1e:51:16:66:d3:ac:
                    31:ea:f1:63:a4:4c:ea:26:f0:fa:61:c7:9f:f2:74:
                    69:6a:78:09:c5:c9:89:74:db:6d:ba:c7:b6:b1:f0:
                    61:1f:ef:3a:1c:d5:c6:fc:95:5d:9b:37:d6:5b:cb:
                    37:93:59:ed:50:f2:6a:a2:01:5c:9e:22:af:3a:31:
                    d9:ee:eb:33:49:93:4e:46:ee:9d:7b:86:86:da:2b:
                    1d:f9:f3:a2:01:7d:0d:55:1c:3b:67:e9:c9:fb:bc:
                    a9:52:4c:4a:21:85:68:50:2f:e4:05:c1:3f:e0:b3:
                    a3:25:d4:6c:2e:61:7c:9d:d5:da:93:bb:19:fe:ea:
                    bf:f2:c8:f9:dc:de:48:54:e1:fe:d4:b5:94:5a:3f:
                    2c:2b:8c:b1:6c:ef:3a:b0:d2:0c:2c:13:75:61:db:
                    97:6b:fa:6b:f9:9d:f7:14:aa:35:72:d8:4c:0b:a1:
                    5c:08:c5:87:d4:e4:87:1d:6b:0a:50:1f:b5:0e:3f:
                    bb:36:8b:c6:e0:bd:1e:1a:e1:1c:f3:37:a4:91:65:
                    4c:43:b4:9e:cc:1b:61:68:09:bd:1e:ab:61:bd:c1:
                    91:71
                Exponent: 65537 (0x10001)
        X509v3 extensions:
            X509v3 Basic Constraints: 
                CA:FALSE
            X509v3 Subject Key Identifier: 
                AB:D2:88:CA:9C:44:26:89:2E:C0:B9:8D:46:DD:5C:69:02:9E:01:CB
            X509v3 Authority Key Identifier: 
                A4:FD:B9:39:1B:81:B3:AA:EB:88:1D:D4:81:A9:B5:11:70:CC:A7:E1
            Authority Information Access: 
                OCSP - URI:http://server.w1.fi:8888/
            X509v3 Extended Key Usage: 
                TLS Web Client Authentication, TLS Web Server Authentication
    Signature Algorithm: sha256WithRSAEncryption
    Signature Value:
        0b:2d:d2:dd:50:4e:bf:06:99:fc:d7:44:a9:ae:a6:12:ba:a0:
        51:0e:1b:a6:4b:06:41:72:44:82:bf:13:8a:40:b9:f8:92:89:
        c6:85:90:df:d0:65:b2:b8:ce:e7:30:af:97:9c:e0:d4:f9:59:
        71:e9:a7:91:56:48:aa:09:aa:18:83:3f:21:9b:c1:21:d2:27:
        d1:7b:0b:77:d4:b0:9d:ff:de:c2:c3:66:1d:84:fd:c6:ab:1a:
        fa:f2:cb:f8:54:23:69:f8:4d:58:8b:15:2d:f1:1f:03:2d:1f:
        80:76:d3:0d:b3:76:11:cd:c6:27:fe:8e:69:1c:db:88:77:fd:
        f4:1f:99:aa:ad:0a:86:54:d0:01:ee:9c:d6:76:75:4a:9d:b8:
        f9:df:8e:d8:d4:6d:0b:66:f3:c1:fa:4b:77:f8:75:59:25:14:
        af:18:4a:fb:fa:57:e4:0e:5a:94:d6:db:f1:76:57:b1:03:9f:
        bc:16:ab:76:ef:27:01:b5:d1:c2:db:f1:e2:b4:69:a1:04:82:
        5f:7d:78:f9:2f:fb:06:e9:0b:05:1f:11:ad:50:d0:8e:db:34:
        1f:58:65:1e:fc:1b:8d:4b:2e:ac:60:7d:fb:2e:ba:e6:91:31:
        3d:2e:45:1d:c9:94:05:d9:66:ec:66:48:28:f1:14:f6:4f:98:
        33:c5:ca:da
-----BEGIN CERTIFICATE-----
MIIDnjCCAoagAwIBAgIJANjT46bL482LMA0GCSqGSIb3DQEBCwUAMEExCzAJBgNV
BAYTAkZJMRAwDgYDVQQHDAdUdXVzdWxhMQ4wDAYDVQQKDAV3MS5maTEQMA4GA1UE
AwwHUm9vdCBDQTAeFw0yNDA0MTYxNTMyNDJaFw0yNTA0MTYxNTMyNDJaMDUxCzAJ
BgNVBAYTAkZJMQ4wDAYDVQQKDAV3MS5maTEWMBQGA1UEAwwNc2VydmVyNi53MS5m
aTCCASIwDQYJKoZIhvcNAQEBBQADggEPADCCAQoCggEBANAj9IASvkpkTa+Zr1Lv
jfVzmhooK5Lo1JAlPoVHn8nEuXo1JIQvHlEWZtOsMerxY6RM6ibw+mHHn/J0aWp4
CcXJiXTbbbrHtrHwYR/vOhzVxvyVXZs31lvLN5NZ7VDyaqIBXJ4irzox2e7rM0mT
TkbunXuGhtorHfnzogF9DVUcO2fpyfu8qVJMSiGFaFAv5AXBP+CzoyXUbC5hfJ3V
2pO7Gf7qv/LI+dzeSFTh/tS1lFo/LCuMsWzvOrDSDCwTdWHbl2v6a/md9xSqNXLY
TAuhXAjFh9Tkhx1rClAftQ4/uzaLxuC9HhrhHPM3pJFlTEO0nswbYWgJvR6rYb3B
kXECAwEAAaOBpDCBoTAJBgNVHRMEAjAAMB0GA1UdDgQWBBSr0ojKnEQmiS7AuY1G
3VxpAp4ByzAfBgNVHSMEGDAWgBSk/bk5G4GzquuIHdSBqbURcMyn4TA1BggrBgEF
BQcBAQQpMCcwJQYIKwYBBQUHMAGGGWh0dHA6Ly9zZXJ2ZXIudzEuZmk6ODg4OC8w
HQYDVR0lBBYwFAYIKwYBBQUHAwIGCCsGAQUFBwMBMA0GCSqGSIb3DQEBCwUAA4IB
AQALLdLdUE6/Bpn810SprqYSuqBRDhumSwZBckSCvxOKQLn4konGhZDf0GWyuM7n
MK+XnODU+Vlx6aeRVkiqCaoYgz8hm8Eh0ifRewt31LCd/97Cw2YdhP3Gqxr68sv4
VCNp+E1YixUt8R8DLR+AdtMNs3YRzcYn/o5pHNuId/30H5mqrQqGVNAB7pzWdnVK
nbj5347Y1G0LZvPB+kt3+HVZJRSvGEr7+lfkDlqU1tvxdlexA5+8Fqt27ycBtdHC
2/HitGmhBIJffXj5L/sG6QsFHxGtUNCO2zQfWGUe/BuNSy6sYH37LrrmkTE9LkUd
yZQF2WbsZkgo8RT2T5gzxcra
-----END CERTIFICATE-----
