Certificate:
    Data:
        Version: 3 (0x2)
        Serial Number:
            d8:d3:e3:a6:cb:e3:cd:87
        Signature Algorithm: sha256WithRSAEncryption
        Issuer: C=FI, L=Tuusula, O=w1.fi, CN=Root CA
        Validity
            Not Before: Apr 16 15:32:42 2024 GMT
            Not After : Apr 16 15:32:42 2025 GMT
        Subject: C=FI, O=w1.fi, CN=server.w1.fi
        Subject Public Key Info:
            Public Key Algorithm: rsaEncryption
                Public-Key: (2048 bit)
                Modulus:
                    00:fd:0e:5e:cd:19:2c:6a:41:83:d9:2c:0e:36:cd:
                    09:b0:8f:b2:c9:8c:c8:d2:03:38:6e:54:bc:43:ee:
                    ce:f8:59:b1:e9:3f:6d:d4:5e:e3:c5:73:19:3d:0b:
                    bc:29:d7:d0:6e:75:00:35:fc:f7:65:b1:b6:0f:cb:
                    06:49:cf:a9:4e:3d:c2:64:4b:18:24:0a:70:b8:6e:
                    54:dc:90:3f:6c:18:fd:b6:88:ab:37:dc:8b:4b:b5:
                    e1:ff:ed:bb:45:05:a3:f0:aa:51:2b:f1:79:06:7f:
                    2f:cd:5d:fc:e6:8a:af:1b:b9:7b:ca:43:75:01:1d:
                    8e:2d:d9:11:13:86:fb:3c:4b:60:a4:29:49:e3:d2:
                    20:20:cb:5c:0d:9c:d2:9c:30:21:11:bc:b3:74:df:
                    64:b0:b7:67:ee:6a:df:af:3d:18:02:b7:dc:e5:54:
                    75:b5:6c:40:c4:b0:8a:1b:c6:fd:ab:1e:b9:ef:d1:
                    83:09:0d:55:ba:17:88:4e:d0:bd:cf:73:36:7c:28:
                    4b:f6:aa:48:d4:e8:fb:25:d8:1d:af:c9:68:73:ac:
                    46:ae:cb:eb:79:36:57:ad:c3:70:02:15:6d:f0:a5:
                    43:73:ab:72:04:b1:16:60:74:0e:4a:c1:8f:52:28:
                    1a:95:7e:ab:d0:04:f6:fa:11:da:1b:d1:99:a4:4f:
                    9e:ed
                Exponent: 65537 (0x10001)
        X509v3 extensions:
            X509v3 Basic Constraints: 
                CA:FALSE
            X509v3 Subject Key Identifier: 
                71:26:7A:1F:72:81:97:24:11:AA:C0:75:FA:BF:31:10:69:49:D0:E7
            X509v3 Authority Key Identifier: 
                A4:FD:B9:39:1B:81:B3:AA:EB:88:1D:D4:81:A9:B5:11:70:CC:A7:E1
            Authority Information Access: 
                OCSP - URI:http://server.w1.fi:8888/
            X509v3 Subject Alternative Name: 
                DNS:server.w1.fi
            X509v3 Extended Key Usage: 
                TLS Web Server Authentication
    Signature Algorithm: sha256WithRSAEncryption
    Signature Value:
        82:94:5d:a3:62:41:3a:3e:dc:90:f8:3b:05:30:91:09:df:06:
        8c:bc:49:d1:4e:ea:2a:0c:0b:05:1c:97:2d:1f:ff:d2:a5:87:
        25:b7:a7:a9:93:29:4b:3a:8c:1d:4a:91:fe:1c:58:9f:39:6a:
        e6:b3:1a:d6:74:0f:65:2e:01:49:54:42:ee:b1:5b:5b:9b:2f:
        03:c7:3e:44:c1:cb:be:21:a3:76:8a:16:e4:06:e4:6f:5e:61:
        35:f6:8c:ed:45:85:90:ea:58:83:05:84:2a:31:35:27:26:3a:
        8a:76:14:b8:46:14:b5:6e:cc:9b:8b:9c:fb:5e:6a:e7:7e:a5:
        b8:d2:fe:cd:27:37:04:ec:0d:2f:83:f7:ac:f4:e2:b3:85:1c:
        34:b1:33:85:7c:64:93:87:61:85:aa:08:39:ba:46:5a:e1:ff:
        01:b6:62:9e:04:62:ce:e4:d8:53:0b:82:07:d7:7d:cb:91:a4:
        c6:c9:6e:d2:d0:4e:9f:81:83:64:b5:07:6d:46:89:e5:2a:24:
        ef:5d:56:8f:e2:7f:fd:56:ed:16:39:20:f1:ee:de:bd:50:61:
        e3:f0:f5:de:35:da:5e:83:a9:43:e4:c7:f7:d8:17:ea:66:fd:
        d7:ae:49:0f:4b:91:a5:f2:90:93:05:d9:a8:cc:3c:e3:ad:76:
        95:4e:5a:46
-----BEGIN CERTIFICATE-----
MIIDrDCCApSgAwIBAgIJANjT46bL482HMA0GCSqGSIb3DQEBCwUAMEExCzAJBgNV
BAYTAkZJMRAwDgYDVQQHDAdUdXVzdWxhMQ4wDAYDVQQKDAV3MS5maTEQMA4GA1UE
AwwHUm9vdCBDQTAeFw0yNDA0MTYxNTMyNDJaFw0yNTA0MTYxNTMyNDJaMDQxCzAJ
BgNVBAYTAkZJMQ4wDAYDVQQKDAV3MS5maTEVMBMGA1UEAwwMc2VydmVyLncxLmZp
MIIBIjANBgkqhkiG9w0BAQEFAAOCAQ8AMIIBCgKCAQEA/Q5ezRksakGD2SwONs0J
sI+yyYzI0gM4blS8Q+7O+Fmx6T9t1F7jxXMZPQu8KdfQbnUANfz3ZbG2D8sGSc+p
Tj3CZEsYJApwuG5U3JA/bBj9toirN9yLS7Xh/+27RQWj8KpRK/F5Bn8vzV385oqv
G7l7ykN1AR2OLdkRE4b7PEtgpClJ49IgIMtcDZzSnDAhEbyzdN9ksLdn7mrfrz0Y
Arfc5VR1tWxAxLCKG8b9qx6579GDCQ1VuheITtC9z3M2fChL9qpI1Oj7Jdgdr8lo
c6xGrsvreTZXrcNwAhVt8KVDc6tyBLEWYHQOSsGPUigalX6r0AT2+hHaG9GZpE+e
7QIDAQABo4GzMIGwMAkGA1UdEwQCMAAwHQYDVR0OBBYEFHEmeh9ygZckEarAdfq/
MRBpSdDnMB8GA1UdIwQYMBaAFKT9uTkbgbOq64gd1IGptRFwzKfhMDUGCCsGAQUF
BwEBBCkwJzAlBggrBgEFBQcwAYYZaHR0cDovL3NlcnZlci53MS5maTo4ODg4LzAX
BgNVHREEEDAOggxzZXJ2ZXIudzEuZmkwEwYDVR0lBAwwCgYIKwYBBQUHAwEwDQYJ
KoZIhvcNAQELBQADggEBAIKUXaNiQTo+3JD4OwUwkQnfBoy8SdFO6ioMCwUcly0f
/9KlhyW3p6mTKUs6jB1Kkf4cWJ85auazGtZ0D2UuAUlUQu6xW1ubLwPHPkTBy74h
o3aKFuQG5G9eYTX2jO1FhZDqWIMFhCoxNScmOop2FLhGFLVuzJuLnPteaud+pbjS
/s0nNwTsDS+D96z04rOFHDSxM4V8ZJOHYYWqCDm6Rlrh/wG2Yp4EYs7k2FMLggfX
fcuRpMbJbtLQTp+Bg2S1B21GieUqJO9dVo/if/1W7RY5IPHu3r1QYePw9d412l6D
qUPkx/fYF+pm/deuSQ9LkaXykJMF2ajMPOOtdpVOWkY=
-----END CERTIFICATE-----
