Certificate:
    Data:
        Version: 3 (0x2)
        Serial Number:
            d8:d3:e3:a6:cb:e3:cd:80
        Signature Algorithm: sha256WithRSAEncryption
        Issuer: C=FI, L=Tuusula, O=w1.fi, CN=Root CA
        Validity
            Not Before: Apr 17 15:09:51 2023 GMT
            Not After : Apr 16 15:09:51 2024 GMT
        Subject: C=FI, O=w1.fi, CN=server5.w1.fi
        Subject Public Key Info:
            Public Key Algorithm: rsaEncryption
                RSA Public-Key: (2048 bit)
                Modulus:
                    00:a5:94:60:80:b8:c8:61:18:8c:02:9d:dc:cc:c4:
                    74:d1:17:b5:3b:47:9c:38:0f:3b:92:74:fb:ea:27:
                    45:44:8a:9a:2a:4d:10:25:8e:77:ce:1a:09:c9:73:
                    19:fe:dc:70:36:5e:8c:fa:8f:4c:84:bb:f7:72:e4:
                    94:4f:fc:47:2a:7d:89:92:a3:2b:5a:69:9c:c8:5a:
                    10:39:32:61:7d:0a:78:19:b4:36:eb:ac:4c:d6:af:
                    75:00:14:4e:15:2f:5f:83:ee:62:f5:ac:7b:0c:81:
                    ba:a2:08:36:7b:f0:ef:63:31:62:fb:86:a6:cf:da:
                    36:83:44:8d:75:28:b6:e4:10:f3:32:dd:8a:6c:5b:
                    ee:4f:f1:1e:53:0b:13:7c:c7:bc:f7:9e:32:80:1e:
                    63:3e:92:75:2f:c5:21:5e:f0:2a:ac:e2:34:e4:17:
                    b2:34:f7:e8:2a:12:8a:21:b8:03:e7:b6:d8:f8:32:
                    b5:fe:71:45:52:98:de:b9:3d:41:f5:90:a5:76:83:
                    c1:18:ca:50:5d:2c:52:8b:6e:4f:a7:5b:bb:d8:e3:
                    14:25:70:de:d1:c7:9d:59:cf:24:46:c7:f5:6e:6f:
                    83:66:ed:1b:1d:3e:51:04:94:67:64:df:51:22:3c:
                    c0:e1:24:0a:37:6a:dc:6a:8b:fd:45:5b:96:2d:03:
                    ac:63
                Exponent: 65537 (0x10001)
        X509v3 extensions:
            X509v3 Basic Constraints: 
                CA:FALSE
            X509v3 Subject Key Identifier: 
                32:9F:9F:30:24:73:73:CB:8D:53:3A:80:23:EB:5B:5D:4C:DD:06:01
            X509v3 Authority Key Identifier: 
                keyid:A4:FD:B9:39:1B:81:B3:AA:EB:88:1D:D4:81:A9:B5:11:70:CC:A7:E1

            Authority Information Access: 
                OCSP - URI:http://server.w1.fi:8888/

            X509v3 Extended Key Usage: 
                TLS Web Client Authentication
    Signature Algorithm: sha256WithRSAEncryption
         95:15:19:62:02:a9:42:59:ec:02:f0:91:26:69:90:e1:cb:eb:
         e0:13:30:bf:78:6e:1c:ee:58:28:94:ea:7d:07:ee:82:07:58:
         b0:80:66:eb:f4:08:47:69:39:8d:a0:1f:f6:96:cc:19:57:02:
         38:28:df:f7:01:42:bf:7e:c6:cf:db:7e:ba:d7:7d:6e:4a:9d:
         3f:19:8f:71:2a:99:a1:e4:7b:e5:80:26:42:bc:47:6f:5d:cb:
         a7:31:0b:b5:ef:0d:11:a8:db:af:89:68:45:29:1c:61:9d:de:
         e9:18:dd:1f:0a:ab:25:a7:32:80:5e:cf:19:c3:a9:ff:78:5a:
         82:86:14:98:31:92:09:c2:c8:cd:dd:27:30:1d:25:28:d7:a6:
         fc:bd:21:eb:16:49:d2:6c:c0:ed:29:94:3f:70:71:d9:a5:50:
         d1:4a:ec:d4:59:b9:c8:6d:a8:6b:33:7c:f2:ba:35:1d:71:b0:
         b7:1b:da:d0:93:29:9f:1c:74:21:dd:e8:4f:4d:17:ec:c5:16:
         c8:6c:4a:31:ae:cc:3f:0c:58:f7:82:f3:99:36:47:8f:31:46:
         60:f1:c8:36:14:db:6e:2c:fb:4d:0b:20:05:64:02:cb:83:8b:
         b6:e7:f2:69:8c:de:45:e3:8c:b4:10:9d:8c:33:4f:ab:a8:3c:
         df:19:33:76
-----BEGIN CERTIFICATE-----
MIIDlDCCAnygAwIBAgIJANjT46bL482AMA0GCSqGSIb3DQEBCwUAMEExCzAJBgNV
BAYTAkZJMRAwDgYDVQQHDAdUdXVzdWxhMQ4wDAYDVQQKDAV3MS5maTEQMA4GA1UE
AwwHUm9vdCBDQTAeFw0yMzA0MTcxNTA5NTFaFw0yNDA0MTYxNTA5NTFaMDUxCzAJ
BgNVBAYTAkZJMQ4wDAYDVQQKDAV3MS5maTEWMBQGA1UEAwwNc2VydmVyNS53MS5m
aTCCASIwDQYJKoZIhvcNAQEBBQADggEPADCCAQoCggEBAKWUYIC4yGEYjAKd3MzE
dNEXtTtHnDgPO5J0++onRUSKmipNECWOd84aCclzGf7ccDZejPqPTIS793LklE/8
Ryp9iZKjK1ppnMhaEDkyYX0KeBm0NuusTNavdQAUThUvX4PuYvWsewyBuqIINnvw
72MxYvuGps/aNoNEjXUotuQQ8zLdimxb7k/xHlMLE3zHvPeeMoAeYz6SdS/FIV7w
KqziNOQXsjT36CoSiiG4A+e22Pgytf5xRVKY3rk9QfWQpXaDwRjKUF0sUotuT6db
u9jjFCVw3tHHnVnPJEbH9W5vg2btGx0+UQSUZ2TfUSI8wOEkCjdq3GqL/UVbli0D
rGMCAwEAAaOBmjCBlzAJBgNVHRMEAjAAMB0GA1UdDgQWBBQyn58wJHNzy41TOoAj
61tdTN0GATAfBgNVHSMEGDAWgBSk/bk5G4GzquuIHdSBqbURcMyn4TA1BggrBgEF
BQcBAQQpMCcwJQYIKwYBBQUHMAGGGWh0dHA6Ly9zZXJ2ZXIudzEuZmk6ODg4OC8w
EwYDVR0lBAwwCgYIKwYBBQUHAwIwDQYJKoZIhvcNAQELBQADggEBAJUVGWICqUJZ
7ALwkSZpkOHL6+ATML94bhzuWCiU6n0H7oIHWLCAZuv0CEdpOY2gH/aWzBlXAjgo
3/cBQr9+xs/bfrrXfW5KnT8Zj3EqmaHke+WAJkK8R29dy6cxC7XvDRGo26+JaEUp
HGGd3ukY3R8KqyWnMoBezxnDqf94WoKGFJgxkgnCyM3dJzAdJSjXpvy9IesWSdJs
wO0plD9wcdmlUNFK7NRZuchtqGszfPK6NR1xsLcb2tCTKZ8cdCHd6E9NF+zFFshs
SjGuzD8MWPeC85k2R48xRmDxyDYU224s+00LIAVkAsuDi7bn8mmM3kXjjLQQnYwz
T6uoPN8ZM3Y=
-----END CERTIFICATE-----
