Certificate:
    Data:
        Version: 3 (0x2)
        Serial Number:
            d8:d3:e3:a6:cb:e3:cd:8f
        Signature Algorithm: sha256WithRSAEncryption
        Issuer: C=FI, L=Tuusula, O=w1.fi, CN=Root CA
        Validity
            Not Before: Apr 16 15:32:42 2024 GMT
            Not After : Apr 16 15:32:42 2025 GMT
        Subject: C=FI, O=w1.fi, CN=Test User
        Subject Public Key Info:
            Public Key Algorithm: rsaEncryption
                Public-Key: (2048 bit)
                Modulus:
                    00:bc:24:08:d9:07:6d:19:0e:94:5c:6b:d9:8a:84:
                    1b:03:22:e2:1a:06:42:d3:0b:60:8d:5f:31:04:06:
                    fa:a2:40:6a:0c:24:29:58:cd:83:bf:3a:9d:7f:37:
                    0d:4d:27:5d:d5:57:57:1c:f3:be:75:3f:3a:4c:44:
                    6f:02:2f:5b:8b:2c:b0:5c:47:29:19:31:08:d1:28:
                    f5:1e:9c:5b:9c:b7:e7:6b:40:35:10:3e:7f:66:67:
                    16:a1:4e:68:8a:71:cc:32:58:e3:08:87:a2:2a:07:
                    2d:7f:73:f6:43:e5:7f:f4:f6:74:ae:27:e8:d2:5c:
                    ae:9b:82:d9:a5:2a:72:76:84:2f:e3:62:aa:41:1e:
                    de:33:b7:64:f8:79:6f:fa:09:b5:bc:b0:8c:cd:34:
                    82:2d:c4:10:55:89:ea:6c:38:92:fe:61:d6:64:84:
                    04:d4:0a:37:32:37:8d:c3:55:d1:fc:ab:b8:55:06:
                    a9:00:4f:31:e2:42:f1:e7:b4:2e:9c:45:0d:dc:a9:
                    f9:ad:b2:77:c1:f0:b1:c3:a2:5a:26:90:bd:19:2f:
                    46:1d:a5:21:3d:f0:35:62:94:c8:cf:33:3f:d8:a2:
                    5d:df:cc:58:00:08:8d:ed:b1:04:c5:2b:3f:1a:15:
                    f6:92:08:d4:f1:42:cd:6c:db:f2:ff:e0:6e:69:84:
                    d8:8b
                Exponent: 65537 (0x10001)
        X509v3 extensions:
            X509v3 Basic Constraints: 
                CA:FALSE
            X509v3 Subject Key Identifier: 
                FB:85:00:A8:DF:D6:0C:0E:A7:E3:39:61:D9:BE:CE:2A:EF:6D:28:D8
            X509v3 Authority Key Identifier: 
                A4:FD:B9:39:1B:81:B3:AA:EB:88:1D:D4:81:A9:B5:11:70:CC:A7:E1
            Authority Information Access: 
                OCSP - URI:http://server.w1.fi:8888/
            X509v3 Extended Key Usage: 
                TLS Web Client Authentication
    Signature Algorithm: sha256WithRSAEncryption
    Signature Value:
        aa:9f:3e:26:5a:c4:34:4a:2b:31:b2:ba:ca:10:c4:6d:db:c1:
        c2:6d:02:6f:55:17:f2:fa:14:77:32:04:f6:a0:ae:4a:84:3d:
        87:67:5c:8a:12:c0:20:45:0e:1a:56:8b:2f:8e:a5:2e:17:6e:
        f2:c8:eb:c8:d2:65:80:0a:72:55:13:88:17:a2:68:da:0c:10:
        9f:cf:ea:24:73:cc:ad:cc:92:fa:6a:f6:16:a0:36:7c:74:cb:
        a3:9a:59:16:4b:15:71:b3:09:2f:2c:07:33:64:c7:28:e7:da:
        00:ad:4e:e7:9e:c5:25:13:06:6f:48:63:53:df:58:ca:bd:fa:
        3a:6c:03:67:12:12:0a:f5:c0:ae:d8:aa:8a:84:f4:44:bb:7a:
        bd:a9:b7:11:02:f6:4e:6e:39:b5:b4:fa:43:25:be:63:9f:4f:
        ed:84:cb:71:e4:47:53:2d:4c:79:1d:73:f4:93:1c:28:cf:66:
        ba:82:c3:62:d9:3c:81:cf:49:0e:97:29:9d:9d:de:bc:47:22:
        b0:52:2e:23:56:7d:fd:e5:46:16:74:a8:26:84:fc:61:ea:54:
        96:39:c7:28:8a:e1:00:a9:a6:e7:99:74:74:6e:e4:4c:2b:33:
        3e:9f:9e:5c:53:4a:12:be:97:c2:6c:60:17:12:c5:f9:73:f7:
        2b:4b:58:97
-----BEGIN CERTIFICATE-----
MIIDkDCCAnigAwIBAgIJANjT46bL482PMA0GCSqGSIb3DQEBCwUAMEExCzAJBgNV
BAYTAkZJMRAwDgYDVQQHDAdUdXVzdWxhMQ4wDAYDVQQKDAV3MS5maTEQMA4GA1UE
AwwHUm9vdCBDQTAeFw0yNDA0MTYxNTMyNDJaFw0yNTA0MTYxNTMyNDJaMDExCzAJ
BgNVBAYTAkZJMQ4wDAYDVQQKDAV3MS5maTESMBAGA1UEAwwJVGVzdCBVc2VyMIIB
IjANBgkqhkiG9w0BAQEFAAOCAQ8AMIIBCgKCAQEAvCQI2QdtGQ6UXGvZioQbAyLi
GgZC0wtgjV8xBAb6okBqDCQpWM2DvzqdfzcNTSdd1VdXHPO+dT86TERvAi9biyyw
XEcpGTEI0Sj1HpxbnLfna0A1ED5/ZmcWoU5oinHMMljjCIeiKgctf3P2Q+V/9PZ0
rifo0lyum4LZpSpydoQv42KqQR7eM7dk+Hlv+gm1vLCMzTSCLcQQVYnqbDiS/mHW
ZIQE1Ao3MjeNw1XR/Ku4VQapAE8x4kLx57QunEUN3Kn5rbJ3wfCxw6JaJpC9GS9G
HaUhPfA1YpTIzzM/2KJd38xYAAiN7bEExSs/GhX2kgjU8ULNbNvy/+BuaYTYiwID
AQABo4GaMIGXMAkGA1UdEwQCMAAwHQYDVR0OBBYEFPuFAKjf1gwOp+M5Ydm+zirv
bSjYMB8GA1UdIwQYMBaAFKT9uTkbgbOq64gd1IGptRFwzKfhMDUGCCsGAQUFBwEB
BCkwJzAlBggrBgEFBQcwAYYZaHR0cDovL3NlcnZlci53MS5maTo4ODg4LzATBgNV
HSUEDDAKBggrBgEFBQcDAjANBgkqhkiG9w0BAQsFAAOCAQEAqp8+JlrENEorMbK6
yhDEbdvBwm0Cb1UX8voUdzIE9qCuSoQ9h2dcihLAIEUOGlaLL46lLhdu8sjryNJl
gApyVROIF6Jo2gwQn8/qJHPMrcyS+mr2FqA2fHTLo5pZFksVcbMJLywHM2THKOfa
AK1O557FJRMGb0hjU99Yyr36OmwDZxISCvXArtiqioT0RLt6vam3EQL2Tm45tbT6
QyW+Y59P7YTLceRHUy1MeR1z9JMcKM9muoLDYtk8gc9JDpcpnZ3evEcisFIuI1Z9
/eVGFnSoJoT8YepUljnHKIrhAKmm55l0dG7kTCszPp+eXFNKEr6XwmxgFxLF+XP3
K0tYlw==
-----END CERTIFICATE-----
