Certificate:
    Data:
        Version: 3 (0x2)
        Serial Number:
            d8:d3:e3:a6:cb:e3:cd:85
        Signature Algorithm: sha256WithRSAEncryption
        Issuer: C=FI, L=Tuusula, O=w1.fi, CN=Root CA
        Validity
            Not Before: Apr 17 15:09:51 2023 GMT
            Not After : Apr 16 15:09:51 2024 GMT
        Subject: C=FI, O=w1.fi, CN=Test User
        Subject Public Key Info:
            Public Key Algorithm: rsaEncryption
                RSA Public-Key: (2048 bit)
                Modulus:
                    00:bc:24:08:d9:07:6d:19:0e:94:5c:6b:d9:8a:84:
                    1b:03:22:e2:1a:06:42:d3:0b:60:8d:5f:31:04:06:
                    fa:a2:40:6a:0c:24:29:58:cd:83:bf:3a:9d:7f:37:
                    0d:4d:27:5d:d5:57:57:1c:f3:be:75:3f:3a:4c:44:
                    6f:02:2f:5b:8b:2c:b0:5c:47:29:19:31:08:d1:28:
                    f5:1e:9c:5b:9c:b7:e7:6b:40:35:10:3e:7f:66:67:
                    16:a1:4e:68:8a:71:cc:32:58:e3:08:87:a2:2a:07:
                    2d:7f:73:f6:43:e5:7f:f4:f6:74:ae:27:e8:d2:5c:
                    ae:9b:82:d9:a5:2a:72:76:84:2f:e3:62:aa:41:1e:
                    de:33:b7:64:f8:79:6f:fa:09:b5:bc:b0:8c:cd:34:
                    82:2d:c4:10:55:89:ea:6c:38:92:fe:61:d6:64:84:
                    04:d4:0a:37:32:37:8d:c3:55:d1:fc:ab:b8:55:06:
                    a9:00:4f:31:e2:42:f1:e7:b4:2e:9c:45:0d:dc:a9:
                    f9:ad:b2:77:c1:f0:b1:c3:a2:5a:26:90:bd:19:2f:
                    46:1d:a5:21:3d:f0:35:62:94:c8:cf:33:3f:d8:a2:
                    5d:df:cc:58:00:08:8d:ed:b1:04:c5:2b:3f:1a:15:
                    f6:92:08:d4:f1:42:cd:6c:db:f2:ff:e0:6e:69:84:
                    d8:8b
                Exponent: 65537 (0x10001)
        X509v3 extensions:
            X509v3 Basic Constraints: 
                CA:FALSE
            X509v3 Subject Key Identifier: 
                FB:85:00:A8:DF:D6:0C:0E:A7:E3:39:61:D9:BE:CE:2A:EF:6D:28:D8
            X509v3 Authority Key Identifier: 
                keyid:A4:FD:B9:39:1B:81:B3:AA:EB:88:1D:D4:81:A9:B5:11:70:CC:A7:E1

            Authority Information Access: 
                OCSP - URI:http://server.w1.fi:8888/

            X509v3 Extended Key Usage: 
                TLS Web Client Authentication
    Signature Algorithm: sha256WithRSAEncryption
         0c:2d:9e:4c:a9:7b:ae:2f:27:4f:14:74:50:b6:53:0d:83:8a:
         8d:06:09:3e:e7:a5:2f:41:96:78:01:8d:cd:56:ce:e9:1f:00:
         37:7f:9a:53:96:01:a2:a9:99:75:8a:9c:8c:a5:42:44:48:2c:
         d1:9d:8d:91:62:8a:6c:af:33:e2:93:9a:6a:06:72:44:9d:ac:
         50:2a:1b:12:42:a8:39:70:10:79:be:66:b8:db:0e:0d:d5:05:
         52:89:d1:91:fb:73:0d:a5:26:f4:9e:1a:fa:37:9f:73:24:fb:
         9c:77:fe:b3:95:40:6c:7f:9c:b2:f4:59:53:d7:6b:75:e7:83:
         65:6a:b9:05:73:3c:96:d1:c4:6e:f0:31:56:53:2f:eb:9b:ad:
         2b:8c:6f:f0:ba:21:08:6f:7b:ee:92:06:f1:6d:44:a7:7b:e5:
         53:29:dc:b0:63:d4:65:db:7b:11:8c:03:ba:ad:88:e3:70:79:
         ae:32:47:be:6b:8f:27:d5:20:17:3e:fe:52:7a:d9:dc:18:93:
         e6:ee:ae:0d:26:38:6d:ba:33:9f:39:f5:3a:0b:b1:86:ed:3c:
         66:40:3a:fa:c1:28:3e:c6:fd:0e:df:90:7e:af:ac:ea:c5:e0:
         91:19:ca:06:c5:5d:9b:34:d9:ee:b3:4d:36:c4:bf:08:f7:31:
         a3:02:a4:4f
-----BEGIN CERTIFICATE-----
MIIDkDCCAnigAwIBAgIJANjT46bL482FMA0GCSqGSIb3DQEBCwUAMEExCzAJBgNV
BAYTAkZJMRAwDgYDVQQHDAdUdXVzdWxhMQ4wDAYDVQQKDAV3MS5maTEQMA4GA1UE
AwwHUm9vdCBDQTAeFw0yMzA0MTcxNTA5NTFaFw0yNDA0MTYxNTA5NTFaMDExCzAJ
BgNVBAYTAkZJMQ4wDAYDVQQKDAV3MS5maTESMBAGA1UEAwwJVGVzdCBVc2VyMIIB
IjANBgkqhkiG9w0BAQEFAAOCAQ8AMIIBCgKCAQEAvCQI2QdtGQ6UXGvZioQbAyLi
GgZC0wtgjV8xBAb6okBqDCQpWM2DvzqdfzcNTSdd1VdXHPO+dT86TERvAi9biyyw
XEcpGTEI0Sj1HpxbnLfna0A1ED5/ZmcWoU5oinHMMljjCIeiKgctf3P2Q+V/9PZ0
rifo0lyum4LZpSpydoQv42KqQR7eM7dk+Hlv+gm1vLCMzTSCLcQQVYnqbDiS/mHW
ZIQE1Ao3MjeNw1XR/Ku4VQapAE8x4kLx57QunEUN3Kn5rbJ3wfCxw6JaJpC9GS9G
HaUhPfA1YpTIzzM/2KJd38xYAAiN7bEExSs/GhX2kgjU8ULNbNvy/+BuaYTYiwID
AQABo4GaMIGXMAkGA1UdEwQCMAAwHQYDVR0OBBYEFPuFAKjf1gwOp+M5Ydm+zirv
bSjYMB8GA1UdIwQYMBaAFKT9uTkbgbOq64gd1IGptRFwzKfhMDUGCCsGAQUFBwEB
BCkwJzAlBggrBgEFBQcwAYYZaHR0cDovL3NlcnZlci53MS5maTo4ODg4LzATBgNV
HSUEDDAKBggrBgEFBQcDAjANBgkqhkiG9w0BAQsFAAOCAQEADC2eTKl7ri8nTxR0
ULZTDYOKjQYJPuelL0GWeAGNzVbO6R8AN3+aU5YBoqmZdYqcjKVCREgs0Z2NkWKK
bK8z4pOaagZyRJ2sUCobEkKoOXAQeb5muNsODdUFUonRkftzDaUm9J4a+jefcyT7
nHf+s5VAbH+csvRZU9drdeeDZWq5BXM8ltHEbvAxVlMv65utK4xv8LohCG977pIG
8W1Ep3vlUyncsGPUZdt7EYwDuq2I43B5rjJHvmuPJ9UgFz7+UnrZ3BiT5u6uDSY4
bboznzn1Oguxhu08ZkA6+sEoPsb9Dt+Qfq+s6sXgkRnKBsVdmzTZ7rNNNsS/CPcx
owKkTw==
-----END CERTIFICATE-----
